(dp1
S'output'
p2
S''
sS'layer'
p3
S'Framework'
p4
sS'code'
p5
S''
sS'snapshot'
p6
(dp7
sS'traceback'
p8
S'Traceback (most recent call last):\n  File "/Users/asad/Documents/workspace/web2py/gluon/main.py", line 445, in wsgibase\n    serve_controller(request, response, session)\n  File "/Users/asad/Documents/workspace/web2py/gluon/main.py", line 184, in serve_controller\n    page = run_view_in(response._view_environment)\n  File "/Users/asad/Documents/workspace/web2py/gluon/compileapp.py", line 724, in run_view_in\n    context=environment)\n  File "/Users/asad/Documents/workspace/web2py/gluon/template.py", line 792, in parse_template\n    return str(TemplateParser(text, context=context, path=path, lexers=lexers, delimiters=delimiters))\n  File "/Users/asad/Documents/workspace/web2py/gluon/template.py", line 326, in __str__\n    return self.to_string()\n  File "/Users/asad/Documents/workspace/web2py/gluon/template.py", line 322, in to_string\n    return self.reindent(str(self.content))\n  File "/Users/asad/Documents/workspace/web2py/gluon/template.py", line 165, in __str__\n    return \'\'.join(output_aux(node, self.blocks) for node in self.nodes)\n  File "/Users/asad/Documents/workspace/web2py/gluon/template.py", line 165, in <genexpr>\n    return \'\'.join(output_aux(node, self.blocks) for node in self.nodes)\n  File "/Users/asad/Documents/workspace/web2py/gluon/template.py", line 74, in output_aux\n    if isinstance(node, BlockNode) \\\n  File "/Users/asad/Documents/workspace/web2py/gluon/template.py", line 146, in output\n    return \'\'.join(output_aux(node, blocks) for node in self.nodes)\n  File "/Users/asad/Documents/workspace/web2py/gluon/template.py", line 146, in <genexpr>\n    return \'\'.join(output_aux(node, blocks) for node in self.nodes)\n  File "/Users/asad/Documents/workspace/web2py/gluon/template.py", line 74, in output_aux\n    if isinstance(node, BlockNode) \\\n  File "/Users/asad/Documents/workspace/web2py/gluon/template.py", line 146, in output\n    return \'\'.join(output_aux(node, blocks) for node in self.nodes)\n  File "/Users/asad/Documents/workspace/web2py/gluon/template.py", line 146, in <genexpr>\n    return \'\'.join(output_aux(node, blocks) for node in self.nodes)\n  File "/Users/asad/Documents/workspace/web2py/gluon/template.py", line 74, in output_aux\n    if isinstance(node, BlockNode) \\\n  File "/Users/asad/Documents/workspace/web2py/gluon/template.py", line 146, in output\n    return \'\'.join(output_aux(node, blocks) for node in self.nodes)\n  File "/Users/asad/Documents/workspace/web2py/gluon/template.py", line 146, in <genexpr>\n    return \'\'.join(output_aux(node, blocks) for node in self.nodes)\n  File "/Users/asad/Documents/workspace/web2py/gluon/template.py", line 74, in output_aux\n    if isinstance(node, BlockNode) \\\n  File "/Users/asad/Documents/workspace/web2py/gluon/template.py", line 146, in output\n    return \'\'.join(output_aux(node, blocks) for node in self.nodes)\n  File "/Users/asad/Documents/workspace/web2py/gluon/template.py", line 146, in <genexpr>\n    return \'\'.join(output_aux(node, blocks) for node in self.nodes)\n  File "/Users/asad/Documents/workspace/web2py/gluon/template.py", line 74, in output_aux\n    if isinstance(node, BlockNode) \\\n  File "/Users/asad/Documents/workspace/web2py/gluon/template.py", line 146, in output\n    return \'\'.join(output_aux(node, blocks) for node in self.nodes)\n  File "/Users/asad/Documents/workspace/web2py/gluon/template.py", line 146, in <genexpr>\n    return \'\'.join(output_aux(node, blocks) for node in self.nodes)\n  File "/Users/asad/Documents/workspace/web2py/gluon/template.py", line 74, in output_aux\n    if isinstance(node, BlockNode) \\\n  File "/Users/asad/Documents/workspace/web2py/gluon/template.py", line 146, in output\n    return \'\'.join(output_aux(node, blocks) for node in self.nodes)\n  File "/Users/asad/Documents/workspace/web2py/gluon/template.py", line 146, in <genexpr>\n    return \'\'.join(output_aux(node, blocks) for node in self.nodes)\n  File "/Users/asad/Documents/workspace/web2py/gluon/template.py", line 74, in output_aux\n    if isinstance(node, BlockNode) \\\n  File "/Users/asad/Documents/workspace/web2py/gluon/template.py", line 146, in output\n    return \'\'.join(output_aux(node, blocks) for node in self.nodes)\n  File "/Users/asad/Documents/workspace/web2py/gluon/template.py", line 146, in <genexpr>\n    return \'\'.join(output_aux(node, blocks) for node in self.nodes)\n  File "/Users/asad/Documents/workspace/web2py/gluon/template.py", line 74, in output_aux\n    if isinstance(node, BlockNode) \\\n  File "/Users/asad/Documents/workspace/web2py/gluon/template.py", line 146, in output\n    return \'\'.join(output_aux(node, blocks) for node in self.nodes)\n  File "/Users/asad/Documents/workspace/web2py/gluon/template.py", line 146, in <genexpr>\n    return \'\'.join(output_aux(node, blocks) for node in self.nodes)\n  File "/Users/asad/Documents/workspace/web2py/gluon/template.py", line 74, in output_aux\n    if isinstance(node, BlockNode) \\\n  File "/Users/asad/Documents/workspace/web2py/gluon/template.py", line 146, in output\n    return \'\'.join(output_aux(node, blocks) for node in self.nodes)\n  File "/Users/asad/Documents/workspace/web2py/gluon/template.py", line 146, in <genexpr>\n    return \'\'.join(output_aux(node, blocks) for node in self.nodes)\n  File "/Users/asad/Documents/workspace/web2py/gluon/template.py", line 74, in output_aux\n    if isinstance(node, BlockNode) \\\n  File "/Users/asad/Documents/workspace/web2py/gluon/template.py", line 146, in output\n    return \'\'.join(output_aux(node, blocks) for node in self.nodes)\n  File "/Users/asad/Documents/workspace/web2py/gluon/template.py", line 146, in <genexpr>\n    return \'\'.join(output_aux(node, blocks) for node in self.nodes)\n  File "/Users/asad/Documents/workspace/web2py/gluon/template.py", line 74, in output_aux\n    if isinstance(node, BlockNode) \\\n  File "/Users/asad/Documents/workspace/web2py/gluon/template.py", line 146, in output\n    return \'\'.join(output_aux(node, blocks) for node in self.nodes)\n  File "/Users/asad/Documents/workspace/web2py/gluon/template.py", line 146, in <genexpr>\n    return \'\'.join(output_aux(node, blocks) for node in self.nodes)\n  File "/Users/asad/Documents/workspace/web2py/gluon/template.py", line 74, in output_aux\n    if isinstance(node, BlockNode) \\\n  File "/Users/asad/Documents/workspace/web2py/gluon/template.py", line 146, in output\n    return \'\'.join(output_aux(node, blocks) for node in self.nodes)\n  File "/Users/asad/Documents/workspace/web2py/gluon/template.py", line 146, in <genexpr>\n    return \'\'.join(output_aux(node, blocks) for node in self.nodes)\n  File "/Users/asad/Documents/workspace/web2py/gluon/template.py", line 74, in output_aux\n    if isinstance(node, BlockNode) \\\n  File "/Users/asad/Documents/workspace/web2py/gluon/template.py", line 146, in output\n    return \'\'.join(output_aux(node, blocks) for node in self.nodes)\n  File "/Users/asad/Documents/workspace/web2py/gluon/template.py", line 146, in <genexpr>\n    return \'\'.join(output_aux(node, blocks) for node in self.nodes)\n  File "/Users/asad/Documents/workspace/web2py/gluon/template.py", line 74, in output_aux\n    if isinstance(node, BlockNode) \\\n  File "/Users/asad/Documents/workspace/web2py/gluon/template.py", line 146, in output\n    return \'\'.join(output_aux(node, blocks) for node in self.nodes)\n  File "/Users/asad/Documents/workspace/web2py/gluon/template.py", line 146, in <genexpr>\n    return \'\'.join(output_aux(node, blocks) for node in self.nodes)\n  File "/Users/asad/Documents/workspace/web2py/gluon/template.py", line 74, in output_aux\n    if isinstance(node, BlockNode) \\\n  File "/Users/asad/Documents/workspace/web2py/gluon/template.py", line 146, in output\n    return \'\'.join(output_aux(node, blocks) for node in self.nodes)\n  File "/Users/asad/Documents/workspace/web2py/gluon/template.py", line 146, in <genexpr>\n    return \'\'.join(output_aux(node, blocks) for node in self.nodes)\n  File "/Users/asad/Documents/workspace/web2py/gluon/template.py", line 74, in output_aux\n    if isinstance(node, BlockNode) \\\n  File "/Users/asad/Documents/workspace/web2py/gluon/template.py", line 146, in output\n    return \'\'.join(output_aux(node, blocks) for node in self.nodes)\n  File "/Users/asad/Documents/workspace/web2py/gluon/template.py", line 146, in <genexpr>\n    return \'\'.join(output_aux(node, blocks) for node in self.nodes)\n  File "/Users/asad/Documents/workspace/web2py/gluon/template.py", line 74, in output_aux\n    if isinstance(node, BlockNode) \\\n  File "/Users/asad/Documents/workspace/web2py/gluon/template.py", line 146, in output\n    return \'\'.join(output_aux(node, blocks) for node in self.nodes)\n  File "/Users/asad/Documents/workspace/web2py/gluon/template.py", line 146, in <genexpr>\n    return \'\'.join(output_aux(node, blocks) for node in self.nodes)\n  File "/Users/asad/Documents/workspace/web2py/gluon/template.py", line 74, in output_aux\n    if isinstance(node, BlockNode) \\\n  File "/Users/asad/Documents/workspace/web2py/gluon/template.py", line 146, in output\n    return \'\'.join(output_aux(node, blocks) for node in self.nodes)\n  File "/Users/asad/Documents/workspace/web2py/gluon/template.py", line 146, in <genexpr>\n    return \'\'.join(output_aux(node, blocks) for node in self.nodes)\n  File "/Users/asad/Documents/workspace/web2py/gluon/template.py", line 74, in output_aux\n    if isinstance(node, BlockNode) \\\n  File "/Users/asad/Documents/workspace/web2py/gluon/template.py", line 146, in output\n    return \'\'.join(output_aux(node, blocks) for node in self.nodes)\n  File "/Users/asad/Documents/workspace/web2py/gluon/template.py", line 146, in <genexpr>\n    return \'\'.join(output_aux(node, blocks) for node in self.nodes)\n  File "/Users/asad/Documents/workspace/web2py/gluon/template.py", line 74, in output_aux\n    if isinstance(node, BlockNode) \\\n  File "/Users/asad/Documents/workspace/web2py/gluon/template.py", line 146, in output\n    return \'\'.join(output_aux(node, blocks) for node in self.nodes)\n  File "/Users/asad/Documents/workspace/web2py/gluon/template.py", line 146, in <genexpr>\n    return \'\'.join(output_aux(node, blocks) for node in self.nodes)\n  File "/Users/asad/Documents/workspace/web2py/gluon/template.py", line 74, in output_aux\n    if isinstance(node, BlockNode) \\\n  File "/Users/asad/Documents/workspace/web2py/gluon/template.py", line 146, in output\n    return \'\'.join(output_aux(node, blocks) for node in self.nodes)\n  File "/Users/asad/Documents/workspace/web2py/gluon/template.py", line 146, in <genexpr>\n    return \'\'.join(output_aux(node, blocks) for node in self.nodes)\n  File "/Users/asad/Documents/workspace/web2py/gluon/template.py", line 74, in output_aux\n    if isinstance(node, BlockNode) \\\n  File "/Users/asad/Documents/workspace/web2py/gluon/template.py", line 146, in output\n    return \'\'.join(output_aux(node, blocks) for node in self.nodes)\n  File "/Users/asad/Documents/workspace/web2py/gluon/template.py", line 146, in <genexpr>\n    return \'\'.join(output_aux(node, blocks) for node in self.nodes)\n  File "/Users/asad/Documents/workspace/web2py/gluon/template.py", line 74, in output_aux\n    if isinstance(node, BlockNode) \\\n  File "/Users/asad/Documents/workspace/web2py/gluon/template.py", line 146, in output\n    return \'\'.join(output_aux(node, blocks) for node in self.nodes)\n  File "/Users/asad/Documents/workspace/web2py/gluon/template.py", line 146, in <genexpr>\n    return \'\'.join(output_aux(node, blocks) for node in self.nodes)\n  File "/Users/asad/Documents/workspace/web2py/gluon/template.py", line 74, in output_aux\n    if isinstance(node, BlockNode) \\\n  File "/Users/asad/Documents/workspace/web2py/gluon/template.py", line 146, in output\n    return \'\'.join(output_aux(node, blocks) for node in self.nodes)\n  File "/Users/asad/Documents/workspace/web2py/gluon/template.py", line 146, in <genexpr>\n    return \'\'.join(output_aux(node, blocks) for node in self.nodes)\n  File "/Users/asad/Documents/workspace/web2py/gluon/template.py", line 74, in output_aux\n    if isinstance(node, BlockNode) \\\n  File "/Users/asad/Documents/workspace/web2py/gluon/template.py", line 146, in output\n    return \'\'.join(output_aux(node, blocks) for node in self.nodes)\n  File "/Users/asad/Documents/workspace/web2py/gluon/template.py", line 146, in <genexpr>\n    return \'\'.join(output_aux(node, blocks) for node in self.nodes)\n  File "/Users/asad/Documents/workspace/web2py/gluon/template.py", line 74, in output_aux\n    if isinstance(node, BlockNode) \\\n  File "/Users/asad/Documents/workspace/web2py/gluon/template.py", line 146, in output\n    return \'\'.join(output_aux(node, blocks) for node in self.nodes)\n  File "/Users/asad/Documents/workspace/web2py/gluon/template.py", line 146, in <genexpr>\n    return \'\'.join(output_aux(node, blocks) for node in self.nodes)\n  File "/Users/asad/Documents/workspace/web2py/gluon/template.py", line 74, in output_aux\n    if isinstance(node, BlockNode) \\\n  File "/Users/asad/Documents/workspace/web2py/gluon/template.py", line 146, in output\n    return \'\'.join(output_aux(node, blocks) for node in self.nodes)\n  File "/Users/asad/Documents/workspace/web2py/gluon/template.py", line 146, in <genexpr>\n    return \'\'.join(output_aux(node, blocks) for node in self.nodes)\n  File "/Users/asad/Documents/workspace/web2py/gluon/template.py", line 74, in output_aux\n    if isinstance(node, BlockNode) \\\n  File "/Users/asad/Documents/workspace/web2py/gluon/template.py", line 146, in output\n    return \'\'.join(output_aux(node, blocks) for node in self.nodes)\n  File "/Users/asad/Documents/workspace/web2py/gluon/template.py", line 146, in <genexpr>\n    return \'\'.join(output_aux(node, blocks) for node in self.nodes)\n  File "/Users/asad/Documents/workspace/web2py/gluon/template.py", line 74, in output_aux\n    if isinstance(node, BlockNode) \\\n  File "/Users/asad/Documents/workspace/web2py/gluon/template.py", line 146, in output\n    return \'\'.join(output_aux(node, blocks) for node in self.nodes)\n  File "/Users/asad/Documents/workspace/web2py/gluon/template.py", line 146, in <genexpr>\n    return \'\'.join(output_aux(node, blocks) for node in self.nodes)\n  File "/Users/asad/Documents/workspace/web2py/gluon/template.py", line 74, in output_aux\n    if isinstance(node, BlockNode) \\\n  File "/Users/asad/Documents/workspace/web2py/gluon/template.py", line 146, in output\n    return \'\'.join(output_aux(node, blocks) for node in self.nodes)\n  File "/Users/asad/Documents/workspace/web2py/gluon/template.py", line 146, in <genexpr>\n    return \'\'.join(output_aux(node, blocks) for node in self.nodes)\n  File "/Users/asad/Documents/workspace/web2py/gluon/template.py", line 74, in output_aux\n    if isinstance(node, BlockNode) \\\n  File "/Users/asad/Documents/workspace/web2py/gluon/template.py", line 146, in output\n    return \'\'.join(output_aux(node, blocks) for node in self.nodes)\n  File "/Users/asad/Documents/workspace/web2py/gluon/template.py", line 146, in <genexpr>\n    return \'\'.join(output_aux(node, blocks) for node in self.nodes)\n  File "/Users/asad/Documents/workspace/web2py/gluon/template.py", line 74, in output_aux\n    if isinstance(node, BlockNode) \\\n  File "/Users/asad/Documents/workspace/web2py/gluon/template.py", line 146, in output\n    return \'\'.join(output_aux(node, blocks) for node in self.nodes)\n  File "/Users/asad/Documents/workspace/web2py/gluon/template.py", line 146, in <genexpr>\n    return \'\'.join(output_aux(node, blocks) for node in self.nodes)\n  File "/Users/asad/Documents/workspace/web2py/gluon/template.py", line 74, in output_aux\n    if isinstance(node, BlockNode) \\\n  File "/Users/asad/Documents/workspace/web2py/gluon/template.py", line 146, in output\n    return \'\'.join(output_aux(node, blocks) for node in self.nodes)\n  File "/Users/asad/Documents/workspace/web2py/gluon/template.py", line 146, in <genexpr>\n    return \'\'.join(output_aux(node, blocks) for node in self.nodes)\n  File "/Users/asad/Documents/workspace/web2py/gluon/template.py", line 74, in output_aux\n    if isinstance(node, BlockNode) \\\n  File "/Users/asad/Documents/workspace/web2py/gluon/template.py", line 146, in output\n    return \'\'.join(output_aux(node, blocks) for node in self.nodes)\n  File "/Users/asad/Documents/workspace/web2py/gluon/template.py", line 146, in <genexpr>\n    return \'\'.join(output_aux(node, blocks) for node in self.nodes)\n  File "/Users/asad/Documents/workspace/web2py/gluon/template.py", line 74, in output_aux\n    if isinstance(node, BlockNode) \\\n  File "/Users/asad/Documents/workspace/web2py/gluon/template.py", line 146, in output\n    return \'\'.join(output_aux(node, blocks) for node in self.nodes)\n  File "/Users/asad/Documents/workspace/web2py/gluon/template.py", line 146, in <genexpr>\n    return \'\'.join(output_aux(node, blocks) for node in self.nodes)\n  File "/Users/asad/Documents/workspace/web2py/gluon/template.py", line 74, in output_aux\n    if isinstance(node, BlockNode) \\\n  File "/Users/asad/Documents/workspace/web2py/gluon/template.py", line 146, in output\n    return \'\'.join(output_aux(node, blocks) for node in self.nodes)\n  File "/Users/asad/Documents/workspace/web2py/gluon/template.py", line 146, in <genexpr>\n    return \'\'.join(output_aux(node, blocks) for node in self.nodes)\n  File "/Users/asad/Documents/workspace/web2py/gluon/template.py", line 74, in output_aux\n    if isinstance(node, BlockNode) \\\n  File "/Users/asad/Documents/workspace/web2py/gluon/template.py", line 146, in output\n    return \'\'.join(output_aux(node, blocks) for node in self.nodes)\n  File "/Users/asad/Documents/workspace/web2py/gluon/template.py", line 146, in <genexpr>\n    return \'\'.join(output_aux(node, blocks) for node in self.nodes)\n  File "/Users/asad/Documents/workspace/web2py/gluon/template.py", line 74, in output_aux\n    if isinstance(node, BlockNode) \\\n  File "/Users/asad/Documents/workspace/web2py/gluon/template.py", line 146, in output\n    return \'\'.join(output_aux(node, blocks) for node in self.nodes)\n  File "/Users/asad/Documents/workspace/web2py/gluon/template.py", line 146, in <genexpr>\n    return \'\'.join(output_aux(node, blocks) for node in self.nodes)\n  File "/Users/asad/Documents/workspace/web2py/gluon/template.py", line 74, in output_aux\n    if isinstance(node, BlockNode) \\\n  File "/Users/asad/Documents/workspace/web2py/gluon/template.py", line 146, in output\n    return \'\'.join(output_aux(node, blocks) for node in self.nodes)\n  File "/Users/asad/Documents/workspace/web2py/gluon/template.py", line 146, in <genexpr>\n    return \'\'.join(output_aux(node, blocks) for node in self.nodes)\n  File "/Users/asad/Documents/workspace/web2py/gluon/template.py", line 74, in output_aux\n    if isinstance(node, BlockNode) \\\n  File "/Users/asad/Documents/workspace/web2py/gluon/template.py", line 146, in output\n    return \'\'.join(output_aux(node, blocks) for node in self.nodes)\n  File "/Users/asad/Documents/workspace/web2py/gluon/template.py", line 146, in <genexpr>\n    return \'\'.join(output_aux(node, blocks) for node in self.nodes)\n  File "/Users/asad/Documents/workspace/web2py/gluon/template.py", line 74, in output_aux\n    if isinstance(node, BlockNode) \\\n  File "/Users/asad/Documents/workspace/web2py/gluon/template.py", line 146, in output\n    return \'\'.join(output_aux(node, blocks) for node in self.nodes)\n  File "/Users/asad/Documents/workspace/web2py/gluon/template.py", line 146, in <genexpr>\n    return \'\'.join(output_aux(node, blocks) for node in self.nodes)\n  File "/Users/asad/Documents/workspace/web2py/gluon/template.py", line 74, in output_aux\n    if isinstance(node, BlockNode) \\\n  File "/Users/asad/Documents/workspace/web2py/gluon/template.py", line 146, in output\n    return \'\'.join(output_aux(node, blocks) for node in self.nodes)\n  File "/Users/asad/Documents/workspace/web2py/gluon/template.py", line 146, in <genexpr>\n    return \'\'.join(output_aux(node, blocks) for node in self.nodes)\n  File "/Users/asad/Documents/workspace/web2py/gluon/template.py", line 74, in output_aux\n    if isinstance(node, BlockNode) \\\n  File "/Users/asad/Documents/workspace/web2py/gluon/template.py", line 146, in output\n    return \'\'.join(output_aux(node, blocks) for node in self.nodes)\n  File "/Users/asad/Documents/workspace/web2py/gluon/template.py", line 146, in <genexpr>\n    return \'\'.join(output_aux(node, blocks) for node in self.nodes)\n  File "/Users/asad/Documents/workspace/web2py/gluon/template.py", line 74, in output_aux\n    if isinstance(node, BlockNode) \\\n  File "/Users/asad/Documents/workspace/web2py/gluon/template.py", line 146, in output\n    return \'\'.join(output_aux(node, blocks) for node in self.nodes)\n  File "/Users/asad/Documents/workspace/web2py/gluon/template.py", line 146, in <genexpr>\n    return \'\'.join(output_aux(node, blocks) for node in self.nodes)\n  File "/Users/asad/Documents/workspace/web2py/gluon/template.py", line 74, in output_aux\n    if isinstance(node, BlockNode) \\\n  File "/Users/asad/Documents/workspace/web2py/gluon/template.py", line 146, in output\n    return \'\'.join(output_aux(node, blocks) for node in self.nodes)\n  File "/Users/asad/Documents/workspace/web2py/gluon/template.py", line 146, in <genexpr>\n    return \'\'.join(output_aux(node, blocks) for node in self.nodes)\n  File "/Users/asad/Documents/workspace/web2py/gluon/template.py", line 74, in output_aux\n    if isinstance(node, BlockNode) \\\n  File "/Users/asad/Documents/workspace/web2py/gluon/template.py", line 146, in output\n    return \'\'.join(output_aux(node, blocks) for node in self.nodes)\n  File "/Users/asad/Documents/workspace/web2py/gluon/template.py", line 146, in <genexpr>\n    return \'\'.join(output_aux(node, blocks) for node in self.nodes)\n  File "/Users/asad/Documents/workspace/web2py/gluon/template.py", line 74, in output_aux\n    if isinstance(node, BlockNode) \\\n  File "/Users/asad/Documents/workspace/web2py/gluon/template.py", line 146, in output\n    return \'\'.join(output_aux(node, blocks) for node in self.nodes)\n  File "/Users/asad/Documents/workspace/web2py/gluon/template.py", line 146, in <genexpr>\n    return \'\'.join(output_aux(node, blocks) for node in self.nodes)\n  File "/Users/asad/Documents/workspace/web2py/gluon/template.py", line 74, in output_aux\n    if isinstance(node, BlockNode) \\\n  File "/Users/asad/Documents/workspace/web2py/gluon/template.py", line 146, in output\n    return \'\'.join(output_aux(node, blocks) for node in self.nodes)\n  File "/Users/asad/Documents/workspace/web2py/gluon/template.py", line 146, in <genexpr>\n    return \'\'.join(output_aux(node, blocks) for node in self.nodes)\n  File "/Users/asad/Documents/workspace/web2py/gluon/template.py", line 74, in output_aux\n    if isinstance(node, BlockNode) \\\n  File "/Users/asad/Documents/workspace/web2py/gluon/template.py", line 146, in output\n    return \'\'.join(output_aux(node, blocks) for node in self.nodes)\n  File "/Users/asad/Documents/workspace/web2py/gluon/template.py", line 146, in <genexpr>\n    return \'\'.join(output_aux(node, blocks) for node in self.nodes)\n  File "/Users/asad/Documents/workspace/web2py/gluon/template.py", line 74, in output_aux\n    if isinstance(node, BlockNode) \\\n  File "/Users/asad/Documents/workspace/web2py/gluon/template.py", line 146, in output\n    return \'\'.join(output_aux(node, blocks) for node in self.nodes)\n  File "/Users/asad/Documents/workspace/web2py/gluon/template.py", line 146, in <genexpr>\n    return \'\'.join(output_aux(node, blocks) for node in self.nodes)\n  File "/Users/asad/Documents/workspace/web2py/gluon/template.py", line 74, in output_aux\n    if isinstance(node, BlockNode) \\\n  File "/Users/asad/Documents/workspace/web2py/gluon/template.py", line 146, in output\n    return \'\'.join(output_aux(node, blocks) for node in self.nodes)\n  File "/Users/asad/Documents/workspace/web2py/gluon/template.py", line 146, in <genexpr>\n    return \'\'.join(output_aux(node, blocks) for node in self.nodes)\n  File "/Users/asad/Documents/workspace/web2py/gluon/template.py", line 74, in output_aux\n    if isinstance(node, BlockNode) \\\n  File "/Users/asad/Documents/workspace/web2py/gluon/template.py", line 146, in output\n    return \'\'.join(output_aux(node, blocks) for node in self.nodes)\n  File "/Users/asad/Documents/workspace/web2py/gluon/template.py", line 146, in <genexpr>\n    return \'\'.join(output_aux(node, blocks) for node in self.nodes)\n  File "/Users/asad/Documents/workspace/web2py/gluon/template.py", line 74, in output_aux\n    if isinstance(node, BlockNode) \\\n  File "/Users/asad/Documents/workspace/web2py/gluon/template.py", line 146, in output\n    return \'\'.join(output_aux(node, blocks) for node in self.nodes)\n  File "/Users/asad/Documents/workspace/web2py/gluon/template.py", line 146, in <genexpr>\n    return \'\'.join(output_aux(node, blocks) for node in self.nodes)\n  File "/Users/asad/Documents/workspace/web2py/gluon/template.py", line 74, in output_aux\n    if isinstance(node, BlockNode) \\\n  File "/Users/asad/Documents/workspace/web2py/gluon/template.py", line 146, in output\n    return \'\'.join(output_aux(node, blocks) for node in self.nodes)\n  File "/Users/asad/Documents/workspace/web2py/gluon/template.py", line 146, in <genexpr>\n    return \'\'.join(output_aux(node, blocks) for node in self.nodes)\n  File "/Users/asad/Documents/workspace/web2py/gluon/template.py", line 74, in output_aux\n    if isinstance(node, BlockNode) \\\n  File "/Users/asad/Documents/workspace/web2py/gluon/template.py", line 146, in output\n    return \'\'.join(output_aux(node, blocks) for node in self.nodes)\n  File "/Users/asad/Documents/workspace/web2py/gluon/template.py", line 146, in <genexpr>\n    return \'\'.join(output_aux(node, blocks) for node in self.nodes)\n  File "/Users/asad/Documents/workspace/web2py/gluon/template.py", line 74, in output_aux\n    if isinstance(node, BlockNode) \\\n  File "/Users/asad/Documents/workspace/web2py/gluon/template.py", line 146, in output\n    return \'\'.join(output_aux(node, blocks) for node in self.nodes)\n  File "/Users/asad/Documents/workspace/web2py/gluon/template.py", line 146, in <genexpr>\n    return \'\'.join(output_aux(node, blocks) for node in self.nodes)\n  File "/Users/asad/Documents/workspace/web2py/gluon/template.py", line 74, in output_aux\n    if isinstance(node, BlockNode) \\\n  File "/Users/asad/Documents/workspace/web2py/gluon/template.py", line 146, in output\n    return \'\'.join(output_aux(node, blocks) for node in self.nodes)\n  File "/Users/asad/Documents/workspace/web2py/gluon/template.py", line 146, in <genexpr>\n    return \'\'.join(output_aux(node, blocks) for node in self.nodes)\n  File "/Users/asad/Documents/workspace/web2py/gluon/template.py", line 74, in output_aux\n    if isinstance(node, BlockNode) \\\n  File "/Users/asad/Documents/workspace/web2py/gluon/template.py", line 146, in output\n    return \'\'.join(output_aux(node, blocks) for node in self.nodes)\n  File "/Users/asad/Documents/workspace/web2py/gluon/template.py", line 146, in <genexpr>\n    return \'\'.join(output_aux(node, blocks) for node in self.nodes)\n  File "/Users/asad/Documents/workspace/web2py/gluon/template.py", line 74, in output_aux\n    if isinstance(node, BlockNode) \\\n  File "/Users/asad/Documents/workspace/web2py/gluon/template.py", line 146, in output\n    return \'\'.join(output_aux(node, blocks) for node in self.nodes)\n  File "/Users/asad/Documents/workspace/web2py/gluon/template.py", line 146, in <genexpr>\n    return \'\'.join(output_aux(node, blocks) for node in self.nodes)\n  File "/Users/asad/Documents/workspace/web2py/gluon/template.py", line 74, in output_aux\n    if isinstance(node, BlockNode) \\\n  File "/Users/asad/Documents/workspace/web2py/gluon/template.py", line 146, in output\n    return \'\'.join(output_aux(node, blocks) for node in self.nodes)\n  File "/Users/asad/Documents/workspace/web2py/gluon/template.py", line 146, in <genexpr>\n    return \'\'.join(output_aux(node, blocks) for node in self.nodes)\n  File "/Users/asad/Documents/workspace/web2py/gluon/template.py", line 74, in output_aux\n    if isinstance(node, BlockNode) \\\n  File "/Users/asad/Documents/workspace/web2py/gluon/template.py", line 146, in output\n    return \'\'.join(output_aux(node, blocks) for node in self.nodes)\n  File "/Users/asad/Documents/workspace/web2py/gluon/template.py", line 146, in <genexpr>\n    return \'\'.join(output_aux(node, blocks) for node in self.nodes)\n  File "/Users/asad/Documents/workspace/web2py/gluon/template.py", line 74, in output_aux\n    if isinstance(node, BlockNode) \\\n  File "/Users/asad/Documents/workspace/web2py/gluon/template.py", line 146, in output\n    return \'\'.join(output_aux(node, blocks) for node in self.nodes)\n  File "/Users/asad/Documents/workspace/web2py/gluon/template.py", line 146, in <genexpr>\n    return \'\'.join(output_aux(node, blocks) for node in self.nodes)\n  File "/Users/asad/Documents/workspace/web2py/gluon/template.py", line 74, in output_aux\n    if isinstance(node, BlockNode) \\\n  File "/Users/asad/Documents/workspace/web2py/gluon/template.py", line 146, in output\n    return \'\'.join(output_aux(node, blocks) for node in self.nodes)\n  File "/Users/asad/Documents/workspace/web2py/gluon/template.py", line 146, in <genexpr>\n    return \'\'.join(output_aux(node, blocks) for node in self.nodes)\n  File "/Users/asad/Documents/workspace/web2py/gluon/template.py", line 74, in output_aux\n    if isinstance(node, BlockNode) \\\n  File "/Users/asad/Documents/workspace/web2py/gluon/template.py", line 146, in output\n    return \'\'.join(output_aux(node, blocks) for node in self.nodes)\n  File "/Users/asad/Documents/workspace/web2py/gluon/template.py", line 146, in <genexpr>\n    return \'\'.join(output_aux(node, blocks) for node in self.nodes)\n  File "/Users/asad/Documents/workspace/web2py/gluon/template.py", line 74, in output_aux\n    if isinstance(node, BlockNode) \\\n  File "/Users/asad/Documents/workspace/web2py/gluon/template.py", line 146, in output\n    return \'\'.join(output_aux(node, blocks) for node in self.nodes)\n  File "/Users/asad/Documents/workspace/web2py/gluon/template.py", line 146, in <genexpr>\n    return \'\'.join(output_aux(node, blocks) for node in self.nodes)\n  File "/Users/asad/Documents/workspace/web2py/gluon/template.py", line 74, in output_aux\n    if isinstance(node, BlockNode) \\\n  File "/Users/asad/Documents/workspace/web2py/gluon/template.py", line 146, in output\n    return \'\'.join(output_aux(node, blocks) for node in self.nodes)\n  File "/Users/asad/Documents/workspace/web2py/gluon/template.py", line 146, in <genexpr>\n    return \'\'.join(output_aux(node, blocks) for node in self.nodes)\n  File "/Users/asad/Documents/workspace/web2py/gluon/template.py", line 74, in output_aux\n    if isinstance(node, BlockNode) \\\n  File "/Users/asad/Documents/workspace/web2py/gluon/template.py", line 146, in output\n    return \'\'.join(output_aux(node, blocks) for node in self.nodes)\n  File "/Users/asad/Documents/workspace/web2py/gluon/template.py", line 146, in <genexpr>\n    return \'\'.join(output_aux(node, blocks) for node in self.nodes)\n  File "/Users/asad/Documents/workspace/web2py/gluon/template.py", line 74, in output_aux\n    if isinstance(node, BlockNode) \\\n  File "/Users/asad/Documents/workspace/web2py/gluon/template.py", line 146, in output\n    return \'\'.join(output_aux(node, blocks) for node in self.nodes)\n  File "/Users/asad/Documents/workspace/web2py/gluon/template.py", line 146, in <genexpr>\n    return \'\'.join(output_aux(node, blocks) for node in self.nodes)\n  File "/Users/asad/Documents/workspace/web2py/gluon/template.py", line 74, in output_aux\n    if isinstance(node, BlockNode) \\\n  File "/Users/asad/Documents/workspace/web2py/gluon/template.py", line 146, in output\n    return \'\'.join(output_aux(node, blocks) for node in self.nodes)\n  File "/Users/asad/Documents/workspace/web2py/gluon/template.py", line 146, in <genexpr>\n    return \'\'.join(output_aux(node, blocks) for node in self.nodes)\n  File "/Users/asad/Documents/workspace/web2py/gluon/template.py", line 74, in output_aux\n    if isinstance(node, BlockNode) \\\n  File "/Users/asad/Documents/workspace/web2py/gluon/template.py", line 146, in output\n    return \'\'.join(output_aux(node, blocks) for node in self.nodes)\n  File "/Users/asad/Documents/workspace/web2py/gluon/template.py", line 146, in <genexpr>\n    return \'\'.join(output_aux(node, blocks) for node in self.nodes)\n  File "/Users/asad/Documents/workspace/web2py/gluon/template.py", line 74, in output_aux\n    if isinstance(node, BlockNode) \\\n  File "/Users/asad/Documents/workspace/web2py/gluon/template.py", line 146, in output\n    return \'\'.join(output_aux(node, blocks) for node in self.nodes)\n  File "/Users/asad/Documents/workspace/web2py/gluon/template.py", line 146, in <genexpr>\n    return \'\'.join(output_aux(node, blocks) for node in self.nodes)\n  File "/Users/asad/Documents/workspace/web2py/gluon/template.py", line 74, in output_aux\n    if isinstance(node, BlockNode) \\\n  File "/Users/asad/Documents/workspace/web2py/gluon/template.py", line 146, in output\n    return \'\'.join(output_aux(node, blocks) for node in self.nodes)\n  File "/Users/asad/Documents/workspace/web2py/gluon/template.py", line 146, in <genexpr>\n    return \'\'.join(output_aux(node, blocks) for node in self.nodes)\n  File "/Users/asad/Documents/workspace/web2py/gluon/template.py", line 74, in output_aux\n    if isinstance(node, BlockNode) \\\n  File "/Users/asad/Documents/workspace/web2py/gluon/template.py", line 146, in output\n    return \'\'.join(output_aux(node, blocks) for node in self.nodes)\n  File "/Users/asad/Documents/workspace/web2py/gluon/template.py", line 146, in <genexpr>\n    return \'\'.join(output_aux(node, blocks) for node in self.nodes)\n  File "/Users/asad/Documents/workspace/web2py/gluon/template.py", line 74, in output_aux\n    if isinstance(node, BlockNode) \\\n  File "/Users/asad/Documents/workspace/web2py/gluon/template.py", line 146, in output\n    return \'\'.join(output_aux(node, blocks) for node in self.nodes)\n  File "/Users/asad/Documents/workspace/web2py/gluon/template.py", line 146, in <genexpr>\n    return \'\'.join(output_aux(node, blocks) for node in self.nodes)\n  File "/Users/asad/Documents/workspace/web2py/gluon/template.py", line 74, in output_aux\n    if isinstance(node, BlockNode) \\\n  File "/Users/asad/Documents/workspace/web2py/gluon/template.py", line 146, in output\n    return \'\'.join(output_aux(node, blocks) for node in self.nodes)\n  File "/Users/asad/Documents/workspace/web2py/gluon/template.py", line 146, in <genexpr>\n    return \'\'.join(output_aux(node, blocks) for node in self.nodes)\n  File "/Users/asad/Documents/workspace/web2py/gluon/template.py", line 74, in output_aux\n    if isinstance(node, BlockNode) \\\n  File "/Users/asad/Documents/workspace/web2py/gluon/template.py", line 146, in output\n    return \'\'.join(output_aux(node, blocks) for node in self.nodes)\n  File "/Users/asad/Documents/workspace/web2py/gluon/template.py", line 146, in <genexpr>\n    return \'\'.join(output_aux(node, blocks) for node in self.nodes)\n  File "/Users/asad/Documents/workspace/web2py/gluon/template.py", line 74, in output_aux\n    if isinstance(node, BlockNode) \\\n  File "/Users/asad/Documents/workspace/web2py/gluon/template.py", line 146, in output\n    return \'\'.join(output_aux(node, blocks) for node in self.nodes)\n  File "/Users/asad/Documents/workspace/web2py/gluon/template.py", line 146, in <genexpr>\n    return \'\'.join(output_aux(node, blocks) for node in self.nodes)\n  File "/Users/asad/Documents/workspace/web2py/gluon/template.py", line 74, in output_aux\n    if isinstance(node, BlockNode) \\\n  File "/Users/asad/Documents/workspace/web2py/gluon/template.py", line 146, in output\n    return \'\'.join(output_aux(node, blocks) for node in self.nodes)\n  File "/Users/asad/Documents/workspace/web2py/gluon/template.py", line 146, in <genexpr>\n    return \'\'.join(output_aux(node, blocks) for node in self.nodes)\n  File "/Users/asad/Documents/workspace/web2py/gluon/template.py", line 74, in output_aux\n    if isinstance(node, BlockNode) \\\n  File "/Users/asad/Documents/workspace/web2py/gluon/template.py", line 146, in output\n    return \'\'.join(output_aux(node, blocks) for node in self.nodes)\n  File "/Users/asad/Documents/workspace/web2py/gluon/template.py", line 146, in <genexpr>\n    return \'\'.join(output_aux(node, blocks) for node in self.nodes)\n  File "/Users/asad/Documents/workspace/web2py/gluon/template.py", line 74, in output_aux\n    if isinstance(node, BlockNode) \\\n  File "/Users/asad/Documents/workspace/web2py/gluon/template.py", line 146, in output\n    return \'\'.join(output_aux(node, blocks) for node in self.nodes)\n  File "/Users/asad/Documents/workspace/web2py/gluon/template.py", line 146, in <genexpr>\n    return \'\'.join(output_aux(node, blocks) for node in self.nodes)\n  File "/Users/asad/Documents/workspace/web2py/gluon/template.py", line 74, in output_aux\n    if isinstance(node, BlockNode) \\\n  File "/Users/asad/Documents/workspace/web2py/gluon/template.py", line 146, in output\n    return \'\'.join(output_aux(node, blocks) for node in self.nodes)\n  File "/Users/asad/Documents/workspace/web2py/gluon/template.py", line 146, in <genexpr>\n    return \'\'.join(output_aux(node, blocks) for node in self.nodes)\n  File "/Users/asad/Documents/workspace/web2py/gluon/template.py", line 74, in output_aux\n    if isinstance(node, BlockNode) \\\n  File "/Users/asad/Documents/workspace/web2py/gluon/template.py", line 146, in output\n    return \'\'.join(output_aux(node, blocks) for node in self.nodes)\n  File "/Users/asad/Documents/workspace/web2py/gluon/template.py", line 146, in <genexpr>\n    return \'\'.join(output_aux(node, blocks) for node in self.nodes)\n  File "/Users/asad/Documents/workspace/web2py/gluon/template.py", line 74, in output_aux\n    if isinstance(node, BlockNode) \\\n  File "/Users/asad/Documents/workspace/web2py/gluon/template.py", line 146, in output\n    return \'\'.join(output_aux(node, blocks) for node in self.nodes)\n  File "/Users/asad/Documents/workspace/web2py/gluon/template.py", line 146, in <genexpr>\n    return \'\'.join(output_aux(node, blocks) for node in self.nodes)\n  File "/Users/asad/Documents/workspace/web2py/gluon/template.py", line 74, in output_aux\n    if isinstance(node, BlockNode) \\\n  File "/Users/asad/Documents/workspace/web2py/gluon/template.py", line 146, in output\n    return \'\'.join(output_aux(node, blocks) for node in self.nodes)\n  File "/Users/asad/Documents/workspace/web2py/gluon/template.py", line 146, in <genexpr>\n    return \'\'.join(output_aux(node, blocks) for node in self.nodes)\n  File "/Users/asad/Documents/workspace/web2py/gluon/template.py", line 74, in output_aux\n    if isinstance(node, BlockNode) \\\n  File "/Users/asad/Documents/workspace/web2py/gluon/template.py", line 146, in output\n    return \'\'.join(output_aux(node, blocks) for node in self.nodes)\n  File "/Users/asad/Documents/workspace/web2py/gluon/template.py", line 146, in <genexpr>\n    return \'\'.join(output_aux(node, blocks) for node in self.nodes)\n  File "/Users/asad/Documents/workspace/web2py/gluon/template.py", line 74, in output_aux\n    if isinstance(node, BlockNode) \\\n  File "/Users/asad/Documents/workspace/web2py/gluon/template.py", line 146, in output\n    return \'\'.join(output_aux(node, blocks) for node in self.nodes)\n  File "/Users/asad/Documents/workspace/web2py/gluon/template.py", line 146, in <genexpr>\n    return \'\'.join(output_aux(node, blocks) for node in self.nodes)\n  File "/Users/asad/Documents/workspace/web2py/gluon/template.py", line 74, in output_aux\n    if isinstance(node, BlockNode) \\\n  File "/Users/asad/Documents/workspace/web2py/gluon/template.py", line 146, in output\n    return \'\'.join(output_aux(node, blocks) for node in self.nodes)\n  File "/Users/asad/Documents/workspace/web2py/gluon/template.py", line 146, in <genexpr>\n    return \'\'.join(output_aux(node, blocks) for node in self.nodes)\n  File "/Users/asad/Documents/workspace/web2py/gluon/template.py", line 74, in output_aux\n    if isinstance(node, BlockNode) \\\n  File "/Users/asad/Documents/workspace/web2py/gluon/template.py", line 146, in output\n    return \'\'.join(output_aux(node, blocks) for node in self.nodes)\n  File "/Users/asad/Documents/workspace/web2py/gluon/template.py", line 146, in <genexpr>\n    return \'\'.join(output_aux(node, blocks) for node in self.nodes)\n  File "/Users/asad/Documents/workspace/web2py/gluon/template.py", line 74, in output_aux\n    if isinstance(node, BlockNode) \\\n  File "/Users/asad/Documents/workspace/web2py/gluon/template.py", line 146, in output\n    return \'\'.join(output_aux(node, blocks) for node in self.nodes)\n  File "/Users/asad/Documents/workspace/web2py/gluon/template.py", line 146, in <genexpr>\n    return \'\'.join(output_aux(node, blocks) for node in self.nodes)\n  File "/Users/asad/Documents/workspace/web2py/gluon/template.py", line 74, in output_aux\n    if isinstance(node, BlockNode) \\\n  File "/Users/asad/Documents/workspace/web2py/gluon/template.py", line 146, in output\n    return \'\'.join(output_aux(node, blocks) for node in self.nodes)\n  File "/Users/asad/Documents/workspace/web2py/gluon/template.py", line 146, in <genexpr>\n    return \'\'.join(output_aux(node, blocks) for node in self.nodes)\n  File "/Users/asad/Documents/workspace/web2py/gluon/template.py", line 74, in output_aux\n    if isinstance(node, BlockNode) \\\n  File "/Users/asad/Documents/workspace/web2py/gluon/template.py", line 146, in output\n    return \'\'.join(output_aux(node, blocks) for node in self.nodes)\n  File "/Users/asad/Documents/workspace/web2py/gluon/template.py", line 146, in <genexpr>\n    return \'\'.join(output_aux(node, blocks) for node in self.nodes)\n  File "/Users/asad/Documents/workspace/web2py/gluon/template.py", line 74, in output_aux\n    if isinstance(node, BlockNode) \\\n  File "/Users/asad/Documents/workspace/web2py/gluon/template.py", line 146, in output\n    return \'\'.join(output_aux(node, blocks) for node in self.nodes)\n  File "/Users/asad/Documents/workspace/web2py/gluon/template.py", line 146, in <genexpr>\n    return \'\'.join(output_aux(node, blocks) for node in self.nodes)\n  File "/Users/asad/Documents/workspace/web2py/gluon/template.py", line 74, in output_aux\n    if isinstance(node, BlockNode) \\\n  File "/Users/asad/Documents/workspace/web2py/gluon/template.py", line 146, in output\n    return \'\'.join(output_aux(node, blocks) for node in self.nodes)\n  File "/Users/asad/Documents/workspace/web2py/gluon/template.py", line 146, in <genexpr>\n    return \'\'.join(output_aux(node, blocks) for node in self.nodes)\n  File "/Users/asad/Documents/workspace/web2py/gluon/template.py", line 74, in output_aux\n    if isinstance(node, BlockNode) \\\n  File "/Users/asad/Documents/workspace/web2py/gluon/template.py", line 146, in output\n    return \'\'.join(output_aux(node, blocks) for node in self.nodes)\n  File "/Users/asad/Documents/workspace/web2py/gluon/template.py", line 146, in <genexpr>\n    return \'\'.join(output_aux(node, blocks) for node in self.nodes)\n  File "/Users/asad/Documents/workspace/web2py/gluon/template.py", line 74, in output_aux\n    if isinstance(node, BlockNode) \\\n  File "/Users/asad/Documents/workspace/web2py/gluon/template.py", line 146, in output\n    return \'\'.join(output_aux(node, blocks) for node in self.nodes)\n  File "/Users/asad/Documents/workspace/web2py/gluon/template.py", line 146, in <genexpr>\n    return \'\'.join(output_aux(node, blocks) for node in self.nodes)\n  File "/Users/asad/Documents/workspace/web2py/gluon/template.py", line 74, in output_aux\n    if isinstance(node, BlockNode) \\\n  File "/Users/asad/Documents/workspace/web2py/gluon/template.py", line 146, in output\n    return \'\'.join(output_aux(node, blocks) for node in self.nodes)\n  File "/Users/asad/Documents/workspace/web2py/gluon/template.py", line 146, in <genexpr>\n    return \'\'.join(output_aux(node, blocks) for node in self.nodes)\n  File "/Users/asad/Documents/workspace/web2py/gluon/template.py", line 74, in output_aux\n    if isinstance(node, BlockNode) \\\n  File "/Users/asad/Documents/workspace/web2py/gluon/template.py", line 146, in output\n    return \'\'.join(output_aux(node, blocks) for node in self.nodes)\n  File "/Users/asad/Documents/workspace/web2py/gluon/template.py", line 146, in <genexpr>\n    return \'\'.join(output_aux(node, blocks) for node in self.nodes)\n  File "/Users/asad/Documents/workspace/web2py/gluon/template.py", line 74, in output_aux\n    if isinstance(node, BlockNode) \\\n  File "/Users/asad/Documents/workspace/web2py/gluon/template.py", line 146, in output\n    return \'\'.join(output_aux(node, blocks) for node in self.nodes)\n  File "/Users/asad/Documents/workspace/web2py/gluon/template.py", line 146, in <genexpr>\n    return \'\'.join(output_aux(node, blocks) for node in self.nodes)\n  File "/Users/asad/Documents/workspace/web2py/gluon/template.py", line 74, in output_aux\n    if isinstance(node, BlockNode) \\\n  File "/Users/asad/Documents/workspace/web2py/gluon/template.py", line 146, in output\n    return \'\'.join(output_aux(node, blocks) for node in self.nodes)\n  File "/Users/asad/Documents/workspace/web2py/gluon/template.py", line 146, in <genexpr>\n    return \'\'.join(output_aux(node, blocks) for node in self.nodes)\n  File "/Users/asad/Documents/workspace/web2py/gluon/template.py", line 74, in output_aux\n    if isinstance(node, BlockNode) \\\n  File "/Users/asad/Documents/workspace/web2py/gluon/template.py", line 146, in output\n    return \'\'.join(output_aux(node, blocks) for node in self.nodes)\n  File "/Users/asad/Documents/workspace/web2py/gluon/template.py", line 146, in <genexpr>\n    return \'\'.join(output_aux(node, blocks) for node in self.nodes)\n  File "/Users/asad/Documents/workspace/web2py/gluon/template.py", line 74, in output_aux\n    if isinstance(node, BlockNode) \\\n  File "/Users/asad/Documents/workspace/web2py/gluon/template.py", line 146, in output\n    return \'\'.join(output_aux(node, blocks) for node in self.nodes)\n  File "/Users/asad/Documents/workspace/web2py/gluon/template.py", line 146, in <genexpr>\n    return \'\'.join(output_aux(node, blocks) for node in self.nodes)\n  File "/Users/asad/Documents/workspace/web2py/gluon/template.py", line 74, in output_aux\n    if isinstance(node, BlockNode) \\\n  File "/Users/asad/Documents/workspace/web2py/gluon/template.py", line 146, in output\n    return \'\'.join(output_aux(node, blocks) for node in self.nodes)\n  File "/Users/asad/Documents/workspace/web2py/gluon/template.py", line 146, in <genexpr>\n    return \'\'.join(output_aux(node, blocks) for node in self.nodes)\n  File "/Users/asad/Documents/workspace/web2py/gluon/template.py", line 74, in output_aux\n    if isinstance(node, BlockNode) \\\n  File "/Users/asad/Documents/workspace/web2py/gluon/template.py", line 146, in output\n    return \'\'.join(output_aux(node, blocks) for node in self.nodes)\n  File "/Users/asad/Documents/workspace/web2py/gluon/template.py", line 146, in <genexpr>\n    return \'\'.join(output_aux(node, blocks) for node in self.nodes)\n  File "/Users/asad/Documents/workspace/web2py/gluon/template.py", line 74, in output_aux\n    if isinstance(node, BlockNode) \\\n  File "/Users/asad/Documents/workspace/web2py/gluon/template.py", line 146, in output\n    return \'\'.join(output_aux(node, blocks) for node in self.nodes)\n  File "/Users/asad/Documents/workspace/web2py/gluon/template.py", line 146, in <genexpr>\n    return \'\'.join(output_aux(node, blocks) for node in self.nodes)\n  File "/Users/asad/Documents/workspace/web2py/gluon/template.py", line 74, in output_aux\n    if isinstance(node, BlockNode) \\\n  File "/Users/asad/Documents/workspace/web2py/gluon/template.py", line 146, in output\n    return \'\'.join(output_aux(node, blocks) for node in self.nodes)\n  File "/Users/asad/Documents/workspace/web2py/gluon/template.py", line 146, in <genexpr>\n    return \'\'.join(output_aux(node, blocks) for node in self.nodes)\n  File "/Users/asad/Documents/workspace/web2py/gluon/template.py", line 74, in output_aux\n    if isinstance(node, BlockNode) \\\n  File "/Users/asad/Documents/workspace/web2py/gluon/template.py", line 146, in output\n    return \'\'.join(output_aux(node, blocks) for node in self.nodes)\n  File "/Users/asad/Documents/workspace/web2py/gluon/template.py", line 146, in <genexpr>\n    return \'\'.join(output_aux(node, blocks) for node in self.nodes)\n  File "/Users/asad/Documents/workspace/web2py/gluon/template.py", line 74, in output_aux\n    if isinstance(node, BlockNode) \\\n  File "/Users/asad/Documents/workspace/web2py/gluon/template.py", line 146, in output\n    return \'\'.join(output_aux(node, blocks) for node in self.nodes)\n  File "/Users/asad/Documents/workspace/web2py/gluon/template.py", line 146, in <genexpr>\n    return \'\'.join(output_aux(node, blocks) for node in self.nodes)\n  File "/Users/asad/Documents/workspace/web2py/gluon/template.py", line 74, in output_aux\n    if isinstance(node, BlockNode) \\\n  File "/Users/asad/Documents/workspace/web2py/gluon/template.py", line 146, in output\n    return \'\'.join(output_aux(node, blocks) for node in self.nodes)\n  File "/Users/asad/Documents/workspace/web2py/gluon/template.py", line 146, in <genexpr>\n    return \'\'.join(output_aux(node, blocks) for node in self.nodes)\n  File "/Users/asad/Documents/workspace/web2py/gluon/template.py", line 74, in output_aux\n    if isinstance(node, BlockNode) \\\n  File "/Users/asad/Documents/workspace/web2py/gluon/template.py", line 146, in output\n    return \'\'.join(output_aux(node, blocks) for node in self.nodes)\n  File "/Users/asad/Documents/workspace/web2py/gluon/template.py", line 146, in <genexpr>\n    return \'\'.join(output_aux(node, blocks) for node in self.nodes)\n  File "/Users/asad/Documents/workspace/web2py/gluon/template.py", line 74, in output_aux\n    if isinstance(node, BlockNode) \\\n  File "/Users/asad/Documents/workspace/web2py/gluon/template.py", line 146, in output\n    return \'\'.join(output_aux(node, blocks) for node in self.nodes)\n  File "/Users/asad/Documents/workspace/web2py/gluon/template.py", line 146, in <genexpr>\n    return \'\'.join(output_aux(node, blocks) for node in self.nodes)\n  File "/Users/asad/Documents/workspace/web2py/gluon/template.py", line 74, in output_aux\n    if isinstance(node, BlockNode) \\\n  File "/Users/asad/Documents/workspace/web2py/gluon/template.py", line 146, in output\n    return \'\'.join(output_aux(node, blocks) for node in self.nodes)\n  File "/Users/asad/Documents/workspace/web2py/gluon/template.py", line 146, in <genexpr>\n    return \'\'.join(output_aux(node, blocks) for node in self.nodes)\n  File "/Users/asad/Documents/workspace/web2py/gluon/template.py", line 74, in output_aux\n    if isinstance(node, BlockNode) \\\n  File "/Users/asad/Documents/workspace/web2py/gluon/template.py", line 146, in output\n    return \'\'.join(output_aux(node, blocks) for node in self.nodes)\n  File "/Users/asad/Documents/workspace/web2py/gluon/template.py", line 146, in <genexpr>\n    return \'\'.join(output_aux(node, blocks) for node in self.nodes)\n  File "/Users/asad/Documents/workspace/web2py/gluon/template.py", line 74, in output_aux\n    if isinstance(node, BlockNode) \\\n  File "/Users/asad/Documents/workspace/web2py/gluon/template.py", line 146, in output\n    return \'\'.join(output_aux(node, blocks) for node in self.nodes)\n  File "/Users/asad/Documents/workspace/web2py/gluon/template.py", line 146, in <genexpr>\n    return \'\'.join(output_aux(node, blocks) for node in self.nodes)\n  File "/Users/asad/Documents/workspace/web2py/gluon/template.py", line 74, in output_aux\n    if isinstance(node, BlockNode) \\\n  File "/Users/asad/Documents/workspace/web2py/gluon/template.py", line 146, in output\n    return \'\'.join(output_aux(node, blocks) for node in self.nodes)\n  File "/Users/asad/Documents/workspace/web2py/gluon/template.py", line 146, in <genexpr>\n    return \'\'.join(output_aux(node, blocks) for node in self.nodes)\n  File "/Users/asad/Documents/workspace/web2py/gluon/template.py", line 74, in output_aux\n    if isinstance(node, BlockNode) \\\n  File "/Users/asad/Documents/workspace/web2py/gluon/template.py", line 146, in output\n    return \'\'.join(output_aux(node, blocks) for node in self.nodes)\n  File "/Users/asad/Documents/workspace/web2py/gluon/template.py", line 146, in <genexpr>\n    return \'\'.join(output_aux(node, blocks) for node in self.nodes)\n  File "/Users/asad/Documents/workspace/web2py/gluon/template.py", line 74, in output_aux\n    if isinstance(node, BlockNode) \\\n  File "/Users/asad/Documents/workspace/web2py/gluon/template.py", line 146, in output\n    return \'\'.join(output_aux(node, blocks) for node in self.nodes)\n  File "/Users/asad/Documents/workspace/web2py/gluon/template.py", line 146, in <genexpr>\n    return \'\'.join(output_aux(node, blocks) for node in self.nodes)\n  File "/Users/asad/Documents/workspace/web2py/gluon/template.py", line 74, in output_aux\n    if isinstance(node, BlockNode) \\\n  File "/Users/asad/Documents/workspace/web2py/gluon/template.py", line 146, in output\n    return \'\'.join(output_aux(node, blocks) for node in self.nodes)\n  File "/Users/asad/Documents/workspace/web2py/gluon/template.py", line 146, in <genexpr>\n    return \'\'.join(output_aux(node, blocks) for node in self.nodes)\n  File "/Users/asad/Documents/workspace/web2py/gluon/template.py", line 74, in output_aux\n    if isinstance(node, BlockNode) \\\n  File "/Users/asad/Documents/workspace/web2py/gluon/template.py", line 146, in output\n    return \'\'.join(output_aux(node, blocks) for node in self.nodes)\n  File "/Users/asad/Documents/workspace/web2py/gluon/template.py", line 146, in <genexpr>\n    return \'\'.join(output_aux(node, blocks) for node in self.nodes)\n  File "/Users/asad/Documents/workspace/web2py/gluon/template.py", line 74, in output_aux\n    if isinstance(node, BlockNode) \\\n  File "/Users/asad/Documents/workspace/web2py/gluon/template.py", line 146, in output\n    return \'\'.join(output_aux(node, blocks) for node in self.nodes)\n  File "/Users/asad/Documents/workspace/web2py/gluon/template.py", line 146, in <genexpr>\n    return \'\'.join(output_aux(node, blocks) for node in self.nodes)\n  File "/Users/asad/Documents/workspace/web2py/gluon/template.py", line 74, in output_aux\n    if isinstance(node, BlockNode) \\\n  File "/Users/asad/Documents/workspace/web2py/gluon/template.py", line 146, in output\n    return \'\'.join(output_aux(node, blocks) for node in self.nodes)\n  File "/Users/asad/Documents/workspace/web2py/gluon/template.py", line 146, in <genexpr>\n    return \'\'.join(output_aux(node, blocks) for node in self.nodes)\n  File "/Users/asad/Documents/workspace/web2py/gluon/template.py", line 74, in output_aux\n    if isinstance(node, BlockNode) \\\n  File "/Users/asad/Documents/workspace/web2py/gluon/template.py", line 146, in output\n    return \'\'.join(output_aux(node, blocks) for node in self.nodes)\n  File "/Users/asad/Documents/workspace/web2py/gluon/template.py", line 146, in <genexpr>\n    return \'\'.join(output_aux(node, blocks) for node in self.nodes)\n  File "/Users/asad/Documents/workspace/web2py/gluon/template.py", line 74, in output_aux\n    if isinstance(node, BlockNode) \\\n  File "/Users/asad/Documents/workspace/web2py/gluon/template.py", line 146, in output\n    return \'\'.join(output_aux(node, blocks) for node in self.nodes)\n  File "/Users/asad/Documents/workspace/web2py/gluon/template.py", line 146, in <genexpr>\n    return \'\'.join(output_aux(node, blocks) for node in self.nodes)\n  File "/Users/asad/Documents/workspace/web2py/gluon/template.py", line 74, in output_aux\n    if isinstance(node, BlockNode) \\\n  File "/Users/asad/Documents/workspace/web2py/gluon/template.py", line 146, in output\n    return \'\'.join(output_aux(node, blocks) for node in self.nodes)\n  File "/Users/asad/Documents/workspace/web2py/gluon/template.py", line 146, in <genexpr>\n    return \'\'.join(output_aux(node, blocks) for node in self.nodes)\n  File "/Users/asad/Documents/workspace/web2py/gluon/template.py", line 74, in output_aux\n    if isinstance(node, BlockNode) \\\n  File "/Users/asad/Documents/workspace/web2py/gluon/template.py", line 146, in output\n    return \'\'.join(output_aux(node, blocks) for node in self.nodes)\n  File "/Users/asad/Documents/workspace/web2py/gluon/template.py", line 146, in <genexpr>\n    return \'\'.join(output_aux(node, blocks) for node in self.nodes)\n  File "/Users/asad/Documents/workspace/web2py/gluon/template.py", line 74, in output_aux\n    if isinstance(node, BlockNode) \\\n  File "/Users/asad/Documents/workspace/web2py/gluon/template.py", line 146, in output\n    return \'\'.join(output_aux(node, blocks) for node in self.nodes)\n  File "/Users/asad/Documents/workspace/web2py/gluon/template.py", line 146, in <genexpr>\n    return \'\'.join(output_aux(node, blocks) for node in self.nodes)\n  File "/Users/asad/Documents/workspace/web2py/gluon/template.py", line 74, in output_aux\n    if isinstance(node, BlockNode) \\\n  File "/Users/asad/Documents/workspace/web2py/gluon/template.py", line 146, in output\n    return \'\'.join(output_aux(node, blocks) for node in self.nodes)\n  File "/Users/asad/Documents/workspace/web2py/gluon/template.py", line 146, in <genexpr>\n    return \'\'.join(output_aux(node, blocks) for node in self.nodes)\n  File "/Users/asad/Documents/workspace/web2py/gluon/template.py", line 74, in output_aux\n    if isinstance(node, BlockNode) \\\n  File "/Users/asad/Documents/workspace/web2py/gluon/template.py", line 146, in output\n    return \'\'.join(output_aux(node, blocks) for node in self.nodes)\n  File "/Users/asad/Documents/workspace/web2py/gluon/template.py", line 146, in <genexpr>\n    return \'\'.join(output_aux(node, blocks) for node in self.nodes)\n  File "/Users/asad/Documents/workspace/web2py/gluon/template.py", line 74, in output_aux\n    if isinstance(node, BlockNode) \\\n  File "/Users/asad/Documents/workspace/web2py/gluon/template.py", line 146, in output\n    return \'\'.join(output_aux(node, blocks) for node in self.nodes)\n  File "/Users/asad/Documents/workspace/web2py/gluon/template.py", line 146, in <genexpr>\n    return \'\'.join(output_aux(node, blocks) for node in self.nodes)\n  File "/Users/asad/Documents/workspace/web2py/gluon/template.py", line 74, in output_aux\n    if isinstance(node, BlockNode) \\\n  File "/Users/asad/Documents/workspace/web2py/gluon/template.py", line 146, in output\n    return \'\'.join(output_aux(node, blocks) for node in self.nodes)\n  File "/Users/asad/Documents/workspace/web2py/gluon/template.py", line 146, in <genexpr>\n    return \'\'.join(output_aux(node, blocks) for node in self.nodes)\n  File "/Users/asad/Documents/workspace/web2py/gluon/template.py", line 74, in output_aux\n    if isinstance(node, BlockNode) \\\n  File "/Users/asad/Documents/workspace/web2py/gluon/template.py", line 146, in output\n    return \'\'.join(output_aux(node, blocks) for node in self.nodes)\n  File "/Users/asad/Documents/workspace/web2py/gluon/template.py", line 146, in <genexpr>\n    return \'\'.join(output_aux(node, blocks) for node in self.nodes)\n  File "/Users/asad/Documents/workspace/web2py/gluon/template.py", line 74, in output_aux\n    if isinstance(node, BlockNode) \\\n  File "/Users/asad/Documents/workspace/web2py/gluon/template.py", line 146, in output\n    return \'\'.join(output_aux(node, blocks) for node in self.nodes)\n  File "/Users/asad/Documents/workspace/web2py/gluon/template.py", line 146, in <genexpr>\n    return \'\'.join(output_aux(node, blocks) for node in self.nodes)\n  File "/Users/asad/Documents/workspace/web2py/gluon/template.py", line 74, in output_aux\n    if isinstance(node, BlockNode) \\\n  File "/Users/asad/Documents/workspace/web2py/gluon/template.py", line 146, in output\n    return \'\'.join(output_aux(node, blocks) for node in self.nodes)\n  File "/Users/asad/Documents/workspace/web2py/gluon/template.py", line 146, in <genexpr>\n    return \'\'.join(output_aux(node, blocks) for node in self.nodes)\n  File "/Users/asad/Documents/workspace/web2py/gluon/template.py", line 74, in output_aux\n    if isinstance(node, BlockNode) \\\n  File "/Users/asad/Documents/workspace/web2py/gluon/template.py", line 146, in output\n    return \'\'.join(output_aux(node, blocks) for node in self.nodes)\n  File "/Users/asad/Documents/workspace/web2py/gluon/template.py", line 146, in <genexpr>\n    return \'\'.join(output_aux(node, blocks) for node in self.nodes)\n  File "/Users/asad/Documents/workspace/web2py/gluon/template.py", line 74, in output_aux\n    if isinstance(node, BlockNode) \\\n  File "/Users/asad/Documents/workspace/web2py/gluon/template.py", line 146, in output\n    return \'\'.join(output_aux(node, blocks) for node in self.nodes)\n  File "/Users/asad/Documents/workspace/web2py/gluon/template.py", line 146, in <genexpr>\n    return \'\'.join(output_aux(node, blocks) for node in self.nodes)\n  File "/Users/asad/Documents/workspace/web2py/gluon/template.py", line 74, in output_aux\n    if isinstance(node, BlockNode) \\\n  File "/Users/asad/Documents/workspace/web2py/gluon/template.py", line 146, in output\n    return \'\'.join(output_aux(node, blocks) for node in self.nodes)\n  File "/Users/asad/Documents/workspace/web2py/gluon/template.py", line 146, in <genexpr>\n    return \'\'.join(output_aux(node, blocks) for node in self.nodes)\n  File "/Users/asad/Documents/workspace/web2py/gluon/template.py", line 74, in output_aux\n    if isinstance(node, BlockNode) \\\n  File "/Users/asad/Documents/workspace/web2py/gluon/template.py", line 146, in output\n    return \'\'.join(output_aux(node, blocks) for node in self.nodes)\n  File "/Users/asad/Documents/workspace/web2py/gluon/template.py", line 146, in <genexpr>\n    return \'\'.join(output_aux(node, blocks) for node in self.nodes)\n  File "/Users/asad/Documents/workspace/web2py/gluon/template.py", line 74, in output_aux\n    if isinstance(node, BlockNode) \\\n  File "/Users/asad/Documents/workspace/web2py/gluon/template.py", line 146, in output\n    return \'\'.join(output_aux(node, blocks) for node in self.nodes)\n  File "/Users/asad/Documents/workspace/web2py/gluon/template.py", line 146, in <genexpr>\n    return \'\'.join(output_aux(node, blocks) for node in self.nodes)\n  File "/Users/asad/Documents/workspace/web2py/gluon/template.py", line 74, in output_aux\n    if isinstance(node, BlockNode) \\\n  File "/Users/asad/Documents/workspace/web2py/gluon/template.py", line 146, in output\n    return \'\'.join(output_aux(node, blocks) for node in self.nodes)\n  File "/Users/asad/Documents/workspace/web2py/gluon/template.py", line 146, in <genexpr>\n    return \'\'.join(output_aux(node, blocks) for node in self.nodes)\n  File "/Users/asad/Documents/workspace/web2py/gluon/template.py", line 74, in output_aux\n    if isinstance(node, BlockNode) \\\n  File "/Users/asad/Documents/workspace/web2py/gluon/template.py", line 146, in output\n    return \'\'.join(output_aux(node, blocks) for node in self.nodes)\n  File "/Users/asad/Documents/workspace/web2py/gluon/template.py", line 146, in <genexpr>\n    return \'\'.join(output_aux(node, blocks) for node in self.nodes)\n  File "/Users/asad/Documents/workspace/web2py/gluon/template.py", line 74, in output_aux\n    if isinstance(node, BlockNode) \\\n  File "/Users/asad/Documents/workspace/web2py/gluon/template.py", line 146, in output\n    return \'\'.join(output_aux(node, blocks) for node in self.nodes)\n  File "/Users/asad/Documents/workspace/web2py/gluon/template.py", line 146, in <genexpr>\n    return \'\'.join(output_aux(node, blocks) for node in self.nodes)\n  File "/Users/asad/Documents/workspace/web2py/gluon/template.py", line 74, in output_aux\n    if isinstance(node, BlockNode) \\\n  File "/Users/asad/Documents/workspace/web2py/gluon/template.py", line 146, in output\n    return \'\'.join(output_aux(node, blocks) for node in self.nodes)\n  File "/Users/asad/Documents/workspace/web2py/gluon/template.py", line 146, in <genexpr>\n    return \'\'.join(output_aux(node, blocks) for node in self.nodes)\n  File "/Users/asad/Documents/workspace/web2py/gluon/template.py", line 74, in output_aux\n    if isinstance(node, BlockNode) \\\n  File "/Users/asad/Documents/workspace/web2py/gluon/template.py", line 146, in output\n    return \'\'.join(output_aux(node, blocks) for node in self.nodes)\n  File "/Users/asad/Documents/workspace/web2py/gluon/template.py", line 146, in <genexpr>\n    return \'\'.join(output_aux(node, blocks) for node in self.nodes)\n  File "/Users/asad/Documents/workspace/web2py/gluon/template.py", line 74, in output_aux\n    if isinstance(node, BlockNode) \\\n  File "/Users/asad/Documents/workspace/web2py/gluon/template.py", line 146, in output\n    return \'\'.join(output_aux(node, blocks) for node in self.nodes)\n  File "/Users/asad/Documents/workspace/web2py/gluon/template.py", line 146, in <genexpr>\n    return \'\'.join(output_aux(node, blocks) for node in self.nodes)\n  File "/Users/asad/Documents/workspace/web2py/gluon/template.py", line 74, in output_aux\n    if isinstance(node, BlockNode) \\\n  File "/Users/asad/Documents/workspace/web2py/gluon/template.py", line 146, in output\n    return \'\'.join(output_aux(node, blocks) for node in self.nodes)\n  File "/Users/asad/Documents/workspace/web2py/gluon/template.py", line 146, in <genexpr>\n    return \'\'.join(output_aux(node, blocks) for node in self.nodes)\n  File "/Users/asad/Documents/workspace/web2py/gluon/template.py", line 74, in output_aux\n    if isinstance(node, BlockNode) \\\n  File "/Users/asad/Documents/workspace/web2py/gluon/template.py", line 146, in output\n    return \'\'.join(output_aux(node, blocks) for node in self.nodes)\n  File "/Users/asad/Documents/workspace/web2py/gluon/template.py", line 146, in <genexpr>\n    return \'\'.join(output_aux(node, blocks) for node in self.nodes)\n  File "/Users/asad/Documents/workspace/web2py/gluon/template.py", line 74, in output_aux\n    if isinstance(node, BlockNode) \\\n  File "/Users/asad/Documents/workspace/web2py/gluon/template.py", line 146, in output\n    return \'\'.join(output_aux(node, blocks) for node in self.nodes)\n  File "/Users/asad/Documents/workspace/web2py/gluon/template.py", line 146, in <genexpr>\n    return \'\'.join(output_aux(node, blocks) for node in self.nodes)\n  File "/Users/asad/Documents/workspace/web2py/gluon/template.py", line 74, in output_aux\n    if isinstance(node, BlockNode) \\\n  File "/Users/asad/Documents/workspace/web2py/gluon/template.py", line 146, in output\n    return \'\'.join(output_aux(node, blocks) for node in self.nodes)\n  File "/Users/asad/Documents/workspace/web2py/gluon/template.py", line 146, in <genexpr>\n    return \'\'.join(output_aux(node, blocks) for node in self.nodes)\n  File "/Users/asad/Documents/workspace/web2py/gluon/template.py", line 74, in output_aux\n    if isinstance(node, BlockNode) \\\n  File "/Users/asad/Documents/workspace/web2py/gluon/template.py", line 146, in output\n    return \'\'.join(output_aux(node, blocks) for node in self.nodes)\n  File "/Users/asad/Documents/workspace/web2py/gluon/template.py", line 146, in <genexpr>\n    return \'\'.join(output_aux(node, blocks) for node in self.nodes)\n  File "/Users/asad/Documents/workspace/web2py/gluon/template.py", line 74, in output_aux\n    if isinstance(node, BlockNode) \\\n  File "/Users/asad/Documents/workspace/web2py/gluon/template.py", line 146, in output\n    return \'\'.join(output_aux(node, blocks) for node in self.nodes)\n  File "/Users/asad/Documents/workspace/web2py/gluon/template.py", line 146, in <genexpr>\n    return \'\'.join(output_aux(node, blocks) for node in self.nodes)\n  File "/Users/asad/Documents/workspace/web2py/gluon/template.py", line 74, in output_aux\n    if isinstance(node, BlockNode) \\\n  File "/Users/asad/Documents/workspace/web2py/gluon/template.py", line 146, in output\n    return \'\'.join(output_aux(node, blocks) for node in self.nodes)\n  File "/Users/asad/Documents/workspace/web2py/gluon/template.py", line 146, in <genexpr>\n    return \'\'.join(output_aux(node, blocks) for node in self.nodes)\n  File "/Users/asad/Documents/workspace/web2py/gluon/template.py", line 74, in output_aux\n    if isinstance(node, BlockNode) \\\n  File "/Users/asad/Documents/workspace/web2py/gluon/template.py", line 146, in output\n    return \'\'.join(output_aux(node, blocks) for node in self.nodes)\n  File "/Users/asad/Documents/workspace/web2py/gluon/template.py", line 146, in <genexpr>\n    return \'\'.join(output_aux(node, blocks) for node in self.nodes)\n  File "/Users/asad/Documents/workspace/web2py/gluon/template.py", line 74, in output_aux\n    if isinstance(node, BlockNode) \\\n  File "/Users/asad/Documents/workspace/web2py/gluon/template.py", line 146, in output\n    return \'\'.join(output_aux(node, blocks) for node in self.nodes)\n  File "/Users/asad/Documents/workspace/web2py/gluon/template.py", line 146, in <genexpr>\n    return \'\'.join(output_aux(node, blocks) for node in self.nodes)\n  File "/Users/asad/Documents/workspace/web2py/gluon/template.py", line 74, in output_aux\n    if isinstance(node, BlockNode) \\\n  File "/Users/asad/Documents/workspace/web2py/gluon/template.py", line 146, in output\n    return \'\'.join(output_aux(node, blocks) for node in self.nodes)\n  File "/Users/asad/Documents/workspace/web2py/gluon/template.py", line 146, in <genexpr>\n    return \'\'.join(output_aux(node, blocks) for node in self.nodes)\n  File "/Users/asad/Documents/workspace/web2py/gluon/template.py", line 74, in output_aux\n    if isinstance(node, BlockNode) \\\n  File "/Users/asad/Documents/workspace/web2py/gluon/template.py", line 146, in output\n    return \'\'.join(output_aux(node, blocks) for node in self.nodes)\n  File "/Users/asad/Documents/workspace/web2py/gluon/template.py", line 146, in <genexpr>\n    return \'\'.join(output_aux(node, blocks) for node in self.nodes)\n  File "/Users/asad/Documents/workspace/web2py/gluon/template.py", line 74, in output_aux\n    if isinstance(node, BlockNode) \\\n  File "/Users/asad/Documents/workspace/web2py/gluon/template.py", line 146, in output\n    return \'\'.join(output_aux(node, blocks) for node in self.nodes)\n  File "/Users/asad/Documents/workspace/web2py/gluon/template.py", line 146, in <genexpr>\n    return \'\'.join(output_aux(node, blocks) for node in self.nodes)\n  File "/Users/asad/Documents/workspace/web2py/gluon/template.py", line 74, in output_aux\n    if isinstance(node, BlockNode) \\\n  File "/Users/asad/Documents/workspace/web2py/gluon/template.py", line 146, in output\n    return \'\'.join(output_aux(node, blocks) for node in self.nodes)\n  File "/Users/asad/Documents/workspace/web2py/gluon/template.py", line 146, in <genexpr>\n    return \'\'.join(output_aux(node, blocks) for node in self.nodes)\n  File "/Users/asad/Documents/workspace/web2py/gluon/template.py", line 74, in output_aux\n    if isinstance(node, BlockNode) \\\n  File "/Users/asad/Documents/workspace/web2py/gluon/template.py", line 146, in output\n    return \'\'.join(output_aux(node, blocks) for node in self.nodes)\n  File "/Users/asad/Documents/workspace/web2py/gluon/template.py", line 146, in <genexpr>\n    return \'\'.join(output_aux(node, blocks) for node in self.nodes)\n  File "/Users/asad/Documents/workspace/web2py/gluon/template.py", line 74, in output_aux\n    if isinstance(node, BlockNode) \\\n  File "/Users/asad/Documents/workspace/web2py/gluon/template.py", line 146, in output\n    return \'\'.join(output_aux(node, blocks) for node in self.nodes)\n  File "/Users/asad/Documents/workspace/web2py/gluon/template.py", line 146, in <genexpr>\n    return \'\'.join(output_aux(node, blocks) for node in self.nodes)\n  File "/Users/asad/Documents/workspace/web2py/gluon/template.py", line 74, in output_aux\n    if isinstance(node, BlockNode) \\\n  File "/Users/asad/Documents/workspace/web2py/gluon/template.py", line 146, in output\n    return \'\'.join(output_aux(node, blocks) for node in self.nodes)\n  File "/Users/asad/Documents/workspace/web2py/gluon/template.py", line 146, in <genexpr>\n    return \'\'.join(output_aux(node, blocks) for node in self.nodes)\n  File "/Users/asad/Documents/workspace/web2py/gluon/template.py", line 74, in output_aux\n    if isinstance(node, BlockNode) \\\n  File "/Users/asad/Documents/workspace/web2py/gluon/template.py", line 146, in output\n    return \'\'.join(output_aux(node, blocks) for node in self.nodes)\n  File "/Users/asad/Documents/workspace/web2py/gluon/template.py", line 146, in <genexpr>\n    return \'\'.join(output_aux(node, blocks) for node in self.nodes)\n  File "/Users/asad/Documents/workspace/web2py/gluon/template.py", line 74, in output_aux\n    if isinstance(node, BlockNode) \\\n  File "/Users/asad/Documents/workspace/web2py/gluon/template.py", line 146, in output\n    return \'\'.join(output_aux(node, blocks) for node in self.nodes)\n  File "/Users/asad/Documents/workspace/web2py/gluon/template.py", line 146, in <genexpr>\n    return \'\'.join(output_aux(node, blocks) for node in self.nodes)\n  File "/Users/asad/Documents/workspace/web2py/gluon/template.py", line 74, in output_aux\n    if isinstance(node, BlockNode) \\\n  File "/Users/asad/Documents/workspace/web2py/gluon/template.py", line 146, in output\n    return \'\'.join(output_aux(node, blocks) for node in self.nodes)\n  File "/Users/asad/Documents/workspace/web2py/gluon/template.py", line 146, in <genexpr>\n    return \'\'.join(output_aux(node, blocks) for node in self.nodes)\n  File "/Users/asad/Documents/workspace/web2py/gluon/template.py", line 74, in output_aux\n    if isinstance(node, BlockNode) \\\n  File "/Users/asad/Documents/workspace/web2py/gluon/template.py", line 146, in output\n    return \'\'.join(output_aux(node, blocks) for node in self.nodes)\n  File "/Users/asad/Documents/workspace/web2py/gluon/template.py", line 146, in <genexpr>\n    return \'\'.join(output_aux(node, blocks) for node in self.nodes)\n  File "/Users/asad/Documents/workspace/web2py/gluon/template.py", line 74, in output_aux\n    if isinstance(node, BlockNode) \\\n  File "/Users/asad/Documents/workspace/web2py/gluon/template.py", line 146, in output\n    return \'\'.join(output_aux(node, blocks) for node in self.nodes)\n  File "/Users/asad/Documents/workspace/web2py/gluon/template.py", line 146, in <genexpr>\n    return \'\'.join(output_aux(node, blocks) for node in self.nodes)\n  File "/Users/asad/Documents/workspace/web2py/gluon/template.py", line 74, in output_aux\n    if isinstance(node, BlockNode) \\\n  File "/Users/asad/Documents/workspace/web2py/gluon/template.py", line 146, in output\n    return \'\'.join(output_aux(node, blocks) for node in self.nodes)\n  File "/Users/asad/Documents/workspace/web2py/gluon/template.py", line 146, in <genexpr>\n    return \'\'.join(output_aux(node, blocks) for node in self.nodes)\n  File "/Users/asad/Documents/workspace/web2py/gluon/template.py", line 74, in output_aux\n    if isinstance(node, BlockNode) \\\n  File "/Users/asad/Documents/workspace/web2py/gluon/template.py", line 146, in output\n    return \'\'.join(output_aux(node, blocks) for node in self.nodes)\n  File "/Users/asad/Documents/workspace/web2py/gluon/template.py", line 146, in <genexpr>\n    return \'\'.join(output_aux(node, blocks) for node in self.nodes)\n  File "/Users/asad/Documents/workspace/web2py/gluon/template.py", line 74, in output_aux\n    if isinstance(node, BlockNode) \\\n  File "/Users/asad/Documents/workspace/web2py/gluon/template.py", line 146, in output\n    return \'\'.join(output_aux(node, blocks) for node in self.nodes)\n  File "/Users/asad/Documents/workspace/web2py/gluon/template.py", line 146, in <genexpr>\n    return \'\'.join(output_aux(node, blocks) for node in self.nodes)\n  File "/Users/asad/Documents/workspace/web2py/gluon/template.py", line 74, in output_aux\n    if isinstance(node, BlockNode) \\\n  File "/Users/asad/Documents/workspace/web2py/gluon/template.py", line 146, in output\n    return \'\'.join(output_aux(node, blocks) for node in self.nodes)\n  File "/Users/asad/Documents/workspace/web2py/gluon/template.py", line 146, in <genexpr>\n    return \'\'.join(output_aux(node, blocks) for node in self.nodes)\n  File "/Users/asad/Documents/workspace/web2py/gluon/template.py", line 74, in output_aux\n    if isinstance(node, BlockNode) \\\n  File "/Users/asad/Documents/workspace/web2py/gluon/template.py", line 146, in output\n    return \'\'.join(output_aux(node, blocks) for node in self.nodes)\n  File "/Users/asad/Documents/workspace/web2py/gluon/template.py", line 146, in <genexpr>\n    return \'\'.join(output_aux(node, blocks) for node in self.nodes)\n  File "/Users/asad/Documents/workspace/web2py/gluon/template.py", line 74, in output_aux\n    if isinstance(node, BlockNode) \\\n  File "/Users/asad/Documents/workspace/web2py/gluon/template.py", line 146, in output\n    return \'\'.join(output_aux(node, blocks) for node in self.nodes)\n  File "/Users/asad/Documents/workspace/web2py/gluon/template.py", line 146, in <genexpr>\n    return \'\'.join(output_aux(node, blocks) for node in self.nodes)\n  File "/Users/asad/Documents/workspace/web2py/gluon/template.py", line 74, in output_aux\n    if isinstance(node, BlockNode) \\\n  File "/Users/asad/Documents/workspace/web2py/gluon/template.py", line 146, in output\n    return \'\'.join(output_aux(node, blocks) for node in self.nodes)\n  File "/Users/asad/Documents/workspace/web2py/gluon/template.py", line 146, in <genexpr>\n    return \'\'.join(output_aux(node, blocks) for node in self.nodes)\n  File "/Users/asad/Documents/workspace/web2py/gluon/template.py", line 74, in output_aux\n    if isinstance(node, BlockNode) \\\n  File "/Users/asad/Documents/workspace/web2py/gluon/template.py", line 146, in output\n    return \'\'.join(output_aux(node, blocks) for node in self.nodes)\n  File "/Users/asad/Documents/workspace/web2py/gluon/template.py", line 146, in <genexpr>\n    return \'\'.join(output_aux(node, blocks) for node in self.nodes)\n  File "/Users/asad/Documents/workspace/web2py/gluon/template.py", line 74, in output_aux\n    if isinstance(node, BlockNode) \\\n  File "/Users/asad/Documents/workspace/web2py/gluon/template.py", line 146, in output\n    return \'\'.join(output_aux(node, blocks) for node in self.nodes)\n  File "/Users/asad/Documents/workspace/web2py/gluon/template.py", line 146, in <genexpr>\n    return \'\'.join(output_aux(node, blocks) for node in self.nodes)\n  File "/Users/asad/Documents/workspace/web2py/gluon/template.py", line 74, in output_aux\n    if isinstance(node, BlockNode) \\\n  File "/Users/asad/Documents/workspace/web2py/gluon/template.py", line 146, in output\n    return \'\'.join(output_aux(node, blocks) for node in self.nodes)\n  File "/Users/asad/Documents/workspace/web2py/gluon/template.py", line 146, in <genexpr>\n    return \'\'.join(output_aux(node, blocks) for node in self.nodes)\n  File "/Users/asad/Documents/workspace/web2py/gluon/template.py", line 74, in output_aux\n    if isinstance(node, BlockNode) \\\n  File "/Users/asad/Documents/workspace/web2py/gluon/template.py", line 146, in output\n    return \'\'.join(output_aux(node, blocks) for node in self.nodes)\n  File "/Users/asad/Documents/workspace/web2py/gluon/template.py", line 146, in <genexpr>\n    return \'\'.join(output_aux(node, blocks) for node in self.nodes)\n  File "/Users/asad/Documents/workspace/web2py/gluon/template.py", line 74, in output_aux\n    if isinstance(node, BlockNode) \\\n  File "/Users/asad/Documents/workspace/web2py/gluon/template.py", line 146, in output\n    return \'\'.join(output_aux(node, blocks) for node in self.nodes)\n  File "/Users/asad/Documents/workspace/web2py/gluon/template.py", line 146, in <genexpr>\n    return \'\'.join(output_aux(node, blocks) for node in self.nodes)\n  File "/Users/asad/Documents/workspace/web2py/gluon/template.py", line 74, in output_aux\n    if isinstance(node, BlockNode) \\\n  File "/Users/asad/Documents/workspace/web2py/gluon/template.py", line 146, in output\n    return \'\'.join(output_aux(node, blocks) for node in self.nodes)\n  File "/Users/asad/Documents/workspace/web2py/gluon/template.py", line 146, in <genexpr>\n    return \'\'.join(output_aux(node, blocks) for node in self.nodes)\n  File "/Users/asad/Documents/workspace/web2py/gluon/template.py", line 74, in output_aux\n    if isinstance(node, BlockNode) \\\n  File "/Users/asad/Documents/workspace/web2py/gluon/template.py", line 146, in output\n    return \'\'.join(output_aux(node, blocks) for node in self.nodes)\n  File "/Users/asad/Documents/workspace/web2py/gluon/template.py", line 146, in <genexpr>\n    return \'\'.join(output_aux(node, blocks) for node in self.nodes)\n  File "/Users/asad/Documents/workspace/web2py/gluon/template.py", line 74, in output_aux\n    if isinstance(node, BlockNode) \\\n  File "/Users/asad/Documents/workspace/web2py/gluon/template.py", line 146, in output\n    return \'\'.join(output_aux(node, blocks) for node in self.nodes)\n  File "/Users/asad/Documents/workspace/web2py/gluon/template.py", line 146, in <genexpr>\n    return \'\'.join(output_aux(node, blocks) for node in self.nodes)\n  File "/Users/asad/Documents/workspace/web2py/gluon/template.py", line 74, in output_aux\n    if isinstance(node, BlockNode) \\\n  File "/Users/asad/Documents/workspace/web2py/gluon/template.py", line 146, in output\n    return \'\'.join(output_aux(node, blocks) for node in self.nodes)\n  File "/Users/asad/Documents/workspace/web2py/gluon/template.py", line 146, in <genexpr>\n    return \'\'.join(output_aux(node, blocks) for node in self.nodes)\n  File "/Users/asad/Documents/workspace/web2py/gluon/template.py", line 74, in output_aux\n    if isinstance(node, BlockNode) \\\n  File "/Users/asad/Documents/workspace/web2py/gluon/template.py", line 146, in output\n    return \'\'.join(output_aux(node, blocks) for node in self.nodes)\n  File "/Users/asad/Documents/workspace/web2py/gluon/template.py", line 146, in <genexpr>\n    return \'\'.join(output_aux(node, blocks) for node in self.nodes)\n  File "/Users/asad/Documents/workspace/web2py/gluon/template.py", line 74, in output_aux\n    if isinstance(node, BlockNode) \\\n  File "/Users/asad/Documents/workspace/web2py/gluon/template.py", line 146, in output\n    return \'\'.join(output_aux(node, blocks) for node in self.nodes)\n  File "/Users/asad/Documents/workspace/web2py/gluon/template.py", line 146, in <genexpr>\n    return \'\'.join(output_aux(node, blocks) for node in self.nodes)\n  File "/Users/asad/Documents/workspace/web2py/gluon/template.py", line 74, in output_aux\n    if isinstance(node, BlockNode) \\\n  File "/Users/asad/Documents/workspace/web2py/gluon/template.py", line 146, in output\n    return \'\'.join(output_aux(node, blocks) for node in self.nodes)\n  File "/Users/asad/Documents/workspace/web2py/gluon/template.py", line 146, in <genexpr>\n    return \'\'.join(output_aux(node, blocks) for node in self.nodes)\n  File "/Users/asad/Documents/workspace/web2py/gluon/template.py", line 74, in output_aux\n    if isinstance(node, BlockNode) \\\n  File "/Users/asad/Documents/workspace/web2py/gluon/template.py", line 146, in output\n    return \'\'.join(output_aux(node, blocks) for node in self.nodes)\n  File "/Users/asad/Documents/workspace/web2py/gluon/template.py", line 146, in <genexpr>\n    return \'\'.join(output_aux(node, blocks) for node in self.nodes)\n  File "/Users/asad/Documents/workspace/web2py/gluon/template.py", line 74, in output_aux\n    if isinstance(node, BlockNode) \\\n  File "/Users/asad/Documents/workspace/web2py/gluon/template.py", line 146, in output\n    return \'\'.join(output_aux(node, blocks) for node in self.nodes)\n  File "/Users/asad/Documents/workspace/web2py/gluon/template.py", line 146, in <genexpr>\n    return \'\'.join(output_aux(node, blocks) for node in self.nodes)\n  File "/Users/asad/Documents/workspace/web2py/gluon/template.py", line 74, in output_aux\n    if isinstance(node, BlockNode) \\\n  File "/Users/asad/Documents/workspace/web2py/gluon/template.py", line 146, in output\n    return \'\'.join(output_aux(node, blocks) for node in self.nodes)\n  File "/Users/asad/Documents/workspace/web2py/gluon/template.py", line 146, in <genexpr>\n    return \'\'.join(output_aux(node, blocks) for node in self.nodes)\n  File "/Users/asad/Documents/workspace/web2py/gluon/template.py", line 74, in output_aux\n    if isinstance(node, BlockNode) \\\n  File "/Users/asad/Documents/workspace/web2py/gluon/template.py", line 146, in output\n    return \'\'.join(output_aux(node, blocks) for node in self.nodes)\n  File "/Users/asad/Documents/workspace/web2py/gluon/template.py", line 146, in <genexpr>\n    return \'\'.join(output_aux(node, blocks) for node in self.nodes)\n  File "/Users/asad/Documents/workspace/web2py/gluon/template.py", line 74, in output_aux\n    if isinstance(node, BlockNode) \\\n  File "/Users/asad/Documents/workspace/web2py/gluon/template.py", line 146, in output\n    return \'\'.join(output_aux(node, blocks) for node in self.nodes)\n  File "/Users/asad/Documents/workspace/web2py/gluon/template.py", line 146, in <genexpr>\n    return \'\'.join(output_aux(node, blocks) for node in self.nodes)\n  File "/Users/asad/Documents/workspace/web2py/gluon/template.py", line 74, in output_aux\n    if isinstance(node, BlockNode) \\\n  File "/Users/asad/Documents/workspace/web2py/gluon/template.py", line 146, in output\n    return \'\'.join(output_aux(node, blocks) for node in self.nodes)\n  File "/Users/asad/Documents/workspace/web2py/gluon/template.py", line 146, in <genexpr>\n    return \'\'.join(output_aux(node, blocks) for node in self.nodes)\n  File "/Users/asad/Documents/workspace/web2py/gluon/template.py", line 74, in output_aux\n    if isinstance(node, BlockNode) \\\n  File "/Users/asad/Documents/workspace/web2py/gluon/template.py", line 146, in output\n    return \'\'.join(output_aux(node, blocks) for node in self.nodes)\n  File "/Users/asad/Documents/workspace/web2py/gluon/template.py", line 146, in <genexpr>\n    return \'\'.join(output_aux(node, blocks) for node in self.nodes)\n  File "/Users/asad/Documents/workspace/web2py/gluon/template.py", line 74, in output_aux\n    if isinstance(node, BlockNode) \\\n  File "/Users/asad/Documents/workspace/web2py/gluon/template.py", line 146, in output\n    return \'\'.join(output_aux(node, blocks) for node in self.nodes)\n  File "/Users/asad/Documents/workspace/web2py/gluon/template.py", line 146, in <genexpr>\n    return \'\'.join(output_aux(node, blocks) for node in self.nodes)\n  File "/Users/asad/Documents/workspace/web2py/gluon/template.py", line 74, in output_aux\n    if isinstance(node, BlockNode) \\\n  File "/Users/asad/Documents/workspace/web2py/gluon/template.py", line 146, in output\n    return \'\'.join(output_aux(node, blocks) for node in self.nodes)\n  File "/Users/asad/Documents/workspace/web2py/gluon/template.py", line 146, in <genexpr>\n    return \'\'.join(output_aux(node, blocks) for node in self.nodes)\n  File "/Users/asad/Documents/workspace/web2py/gluon/template.py", line 74, in output_aux\n    if isinstance(node, BlockNode) \\\n  File "/Users/asad/Documents/workspace/web2py/gluon/template.py", line 146, in output\n    return \'\'.join(output_aux(node, blocks) for node in self.nodes)\n  File "/Users/asad/Documents/workspace/web2py/gluon/template.py", line 146, in <genexpr>\n    return \'\'.join(output_aux(node, blocks) for node in self.nodes)\n  File "/Users/asad/Documents/workspace/web2py/gluon/template.py", line 74, in output_aux\n    if isinstance(node, BlockNode) \\\n  File "/Users/asad/Documents/workspace/web2py/gluon/template.py", line 146, in output\n    return \'\'.join(output_aux(node, blocks) for node in self.nodes)\n  File "/Users/asad/Documents/workspace/web2py/gluon/template.py", line 146, in <genexpr>\n    return \'\'.join(output_aux(node, blocks) for node in self.nodes)\n  File "/Users/asad/Documents/workspace/web2py/gluon/template.py", line 74, in output_aux\n    if isinstance(node, BlockNode) \\\n  File "/Users/asad/Documents/workspace/web2py/gluon/template.py", line 146, in output\n    return \'\'.join(output_aux(node, blocks) for node in self.nodes)\n  File "/Users/asad/Documents/workspace/web2py/gluon/template.py", line 146, in <genexpr>\n    return \'\'.join(output_aux(node, blocks) for node in self.nodes)\n  File "/Users/asad/Documents/workspace/web2py/gluon/template.py", line 74, in output_aux\n    if isinstance(node, BlockNode) \\\n  File "/Users/asad/Documents/workspace/web2py/gluon/template.py", line 146, in output\n    return \'\'.join(output_aux(node, blocks) for node in self.nodes)\n  File "/Users/asad/Documents/workspace/web2py/gluon/template.py", line 146, in <genexpr>\n    return \'\'.join(output_aux(node, blocks) for node in self.nodes)\n  File "/Users/asad/Documents/workspace/web2py/gluon/template.py", line 74, in output_aux\n    if isinstance(node, BlockNode) \\\n  File "/Users/asad/Documents/workspace/web2py/gluon/template.py", line 146, in output\n    return \'\'.join(output_aux(node, blocks) for node in self.nodes)\n  File "/Users/asad/Documents/workspace/web2py/gluon/template.py", line 146, in <genexpr>\n    return \'\'.join(output_aux(node, blocks) for node in self.nodes)\n  File "/Users/asad/Documents/workspace/web2py/gluon/template.py", line 74, in output_aux\n    if isinstance(node, BlockNode) \\\n  File "/Users/asad/Documents/workspace/web2py/gluon/template.py", line 146, in output\n    return \'\'.join(output_aux(node, blocks) for node in self.nodes)\n  File "/Users/asad/Documents/workspace/web2py/gluon/template.py", line 146, in <genexpr>\n    return \'\'.join(output_aux(node, blocks) for node in self.nodes)\n  File "/Users/asad/Documents/workspace/web2py/gluon/template.py", line 74, in output_aux\n    if isinstance(node, BlockNode) \\\n  File "/Users/asad/Documents/workspace/web2py/gluon/template.py", line 146, in output\n    return \'\'.join(output_aux(node, blocks) for node in self.nodes)\n  File "/Users/asad/Documents/workspace/web2py/gluon/template.py", line 146, in <genexpr>\n    return \'\'.join(output_aux(node, blocks) for node in self.nodes)\n  File "/Users/asad/Documents/workspace/web2py/gluon/template.py", line 74, in output_aux\n    if isinstance(node, BlockNode) \\\n  File "/Users/asad/Documents/workspace/web2py/gluon/template.py", line 146, in output\n    return \'\'.join(output_aux(node, blocks) for node in self.nodes)\n  File "/Users/asad/Documents/workspace/web2py/gluon/template.py", line 146, in <genexpr>\n    return \'\'.join(output_aux(node, blocks) for node in self.nodes)\n  File "/Users/asad/Documents/workspace/web2py/gluon/template.py", line 74, in output_aux\n    if isinstance(node, BlockNode) \\\n  File "/Users/asad/Documents/workspace/web2py/gluon/template.py", line 146, in output\n    return \'\'.join(output_aux(node, blocks) for node in self.nodes)\n  File "/Users/asad/Documents/workspace/web2py/gluon/template.py", line 146, in <genexpr>\n    return \'\'.join(output_aux(node, blocks) for node in self.nodes)\n  File "/Users/asad/Documents/workspace/web2py/gluon/template.py", line 74, in output_aux\n    if isinstance(node, BlockNode) \\\n  File "/Users/asad/Documents/workspace/web2py/gluon/template.py", line 146, in output\n    return \'\'.join(output_aux(node, blocks) for node in self.nodes)\n  File "/Users/asad/Documents/workspace/web2py/gluon/template.py", line 146, in <genexpr>\n    return \'\'.join(output_aux(node, blocks) for node in self.nodes)\n  File "/Users/asad/Documents/workspace/web2py/gluon/template.py", line 74, in output_aux\n    if isinstance(node, BlockNode) \\\n  File "/Users/asad/Documents/workspace/web2py/gluon/template.py", line 146, in output\n    return \'\'.join(output_aux(node, blocks) for node in self.nodes)\n  File "/Users/asad/Documents/workspace/web2py/gluon/template.py", line 146, in <genexpr>\n    return \'\'.join(output_aux(node, blocks) for node in self.nodes)\n  File "/Users/asad/Documents/workspace/web2py/gluon/template.py", line 74, in output_aux\n    if isinstance(node, BlockNode) \\\n  File "/Users/asad/Documents/workspace/web2py/gluon/template.py", line 146, in output\n    return \'\'.join(output_aux(node, blocks) for node in self.nodes)\n  File "/Users/asad/Documents/workspace/web2py/gluon/template.py", line 146, in <genexpr>\n    return \'\'.join(output_aux(node, blocks) for node in self.nodes)\n  File "/Users/asad/Documents/workspace/web2py/gluon/template.py", line 74, in output_aux\n    if isinstance(node, BlockNode) \\\n  File "/Users/asad/Documents/workspace/web2py/gluon/template.py", line 146, in output\n    return \'\'.join(output_aux(node, blocks) for node in self.nodes)\n  File "/Users/asad/Documents/workspace/web2py/gluon/template.py", line 146, in <genexpr>\n    return \'\'.join(output_aux(node, blocks) for node in self.nodes)\n  File "/Users/asad/Documents/workspace/web2py/gluon/template.py", line 74, in output_aux\n    if isinstance(node, BlockNode) \\\n  File "/Users/asad/Documents/workspace/web2py/gluon/template.py", line 146, in output\n    return \'\'.join(output_aux(node, blocks) for node in self.nodes)\n  File "/Users/asad/Documents/workspace/web2py/gluon/template.py", line 146, in <genexpr>\n    return \'\'.join(output_aux(node, blocks) for node in self.nodes)\n  File "/Users/asad/Documents/workspace/web2py/gluon/template.py", line 74, in output_aux\n    if isinstance(node, BlockNode) \\\n  File "/Users/asad/Documents/workspace/web2py/gluon/template.py", line 146, in output\n    return \'\'.join(output_aux(node, blocks) for node in self.nodes)\n  File "/Users/asad/Documents/workspace/web2py/gluon/template.py", line 146, in <genexpr>\n    return \'\'.join(output_aux(node, blocks) for node in self.nodes)\n  File "/Users/asad/Documents/workspace/web2py/gluon/template.py", line 74, in output_aux\n    if isinstance(node, BlockNode) \\\n  File "/Users/asad/Documents/workspace/web2py/gluon/template.py", line 146, in output\n    return \'\'.join(output_aux(node, blocks) for node in self.nodes)\n  File "/Users/asad/Documents/workspace/web2py/gluon/template.py", line 146, in <genexpr>\n    return \'\'.join(output_aux(node, blocks) for node in self.nodes)\n  File "/Users/asad/Documents/workspace/web2py/gluon/template.py", line 74, in output_aux\n    if isinstance(node, BlockNode) \\\n  File "/Users/asad/Documents/workspace/web2py/gluon/template.py", line 146, in output\n    return \'\'.join(output_aux(node, blocks) for node in self.nodes)\n  File "/Users/asad/Documents/workspace/web2py/gluon/template.py", line 146, in <genexpr>\n    return \'\'.join(output_aux(node, blocks) for node in self.nodes)\n  File "/Users/asad/Documents/workspace/web2py/gluon/template.py", line 74, in output_aux\n    if isinstance(node, BlockNode) \\\n  File "/Users/asad/Documents/workspace/web2py/gluon/template.py", line 146, in output\n    return \'\'.join(output_aux(node, blocks) for node in self.nodes)\n  File "/Users/asad/Documents/workspace/web2py/gluon/template.py", line 146, in <genexpr>\n    return \'\'.join(output_aux(node, blocks) for node in self.nodes)\n  File "/Users/asad/Documents/workspace/web2py/gluon/template.py", line 74, in output_aux\n    if isinstance(node, BlockNode) \\\n  File "/Users/asad/Documents/workspace/web2py/gluon/template.py", line 146, in output\n    return \'\'.join(output_aux(node, blocks) for node in self.nodes)\n  File "/Users/asad/Documents/workspace/web2py/gluon/template.py", line 146, in <genexpr>\n    return \'\'.join(output_aux(node, blocks) for node in self.nodes)\n  File "/Users/asad/Documents/workspace/web2py/gluon/template.py", line 74, in output_aux\n    if isinstance(node, BlockNode) \\\n  File "/Users/asad/Documents/workspace/web2py/gluon/template.py", line 146, in output\n    return \'\'.join(output_aux(node, blocks) for node in self.nodes)\n  File "/Users/asad/Documents/workspace/web2py/gluon/template.py", line 146, in <genexpr>\n    return \'\'.join(output_aux(node, blocks) for node in self.nodes)\n  File "/Users/asad/Documents/workspace/web2py/gluon/template.py", line 74, in output_aux\n    if isinstance(node, BlockNode) \\\n  File "/Users/asad/Documents/workspace/web2py/gluon/template.py", line 146, in output\n    return \'\'.join(output_aux(node, blocks) for node in self.nodes)\n  File "/Users/asad/Documents/workspace/web2py/gluon/template.py", line 146, in <genexpr>\n    return \'\'.join(output_aux(node, blocks) for node in self.nodes)\n  File "/Users/asad/Documents/workspace/web2py/gluon/template.py", line 74, in output_aux\n    if isinstance(node, BlockNode) \\\n  File "/Users/asad/Documents/workspace/web2py/gluon/template.py", line 146, in output\n    return \'\'.join(output_aux(node, blocks) for node in self.nodes)\n  File "/Users/asad/Documents/workspace/web2py/gluon/template.py", line 146, in <genexpr>\n    return \'\'.join(output_aux(node, blocks) for node in self.nodes)\n  File "/Users/asad/Documents/workspace/web2py/gluon/template.py", line 74, in output_aux\n    if isinstance(node, BlockNode) \\\n  File "/Users/asad/Documents/workspace/web2py/gluon/template.py", line 146, in output\n    return \'\'.join(output_aux(node, blocks) for node in self.nodes)\n  File "/Users/asad/Documents/workspace/web2py/gluon/template.py", line 146, in <genexpr>\n    return \'\'.join(output_aux(node, blocks) for node in self.nodes)\n  File "/Users/asad/Documents/workspace/web2py/gluon/template.py", line 74, in output_aux\n    if isinstance(node, BlockNode) \\\n  File "/Users/asad/Documents/workspace/web2py/gluon/template.py", line 146, in output\n    return \'\'.join(output_aux(node, blocks) for node in self.nodes)\n  File "/Users/asad/Documents/workspace/web2py/gluon/template.py", line 146, in <genexpr>\n    return \'\'.join(output_aux(node, blocks) for node in self.nodes)\n  File "/Users/asad/Documents/workspace/web2py/gluon/template.py", line 74, in output_aux\n    if isinstance(node, BlockNode) \\\n  File "/Users/asad/Documents/workspace/web2py/gluon/template.py", line 146, in output\n    return \'\'.join(output_aux(node, blocks) for node in self.nodes)\n  File "/Users/asad/Documents/workspace/web2py/gluon/template.py", line 146, in <genexpr>\n    return \'\'.join(output_aux(node, blocks) for node in self.nodes)\n  File "/Users/asad/Documents/workspace/web2py/gluon/template.py", line 74, in output_aux\n    if isinstance(node, BlockNode) \\\n  File "/Users/asad/Documents/workspace/web2py/gluon/template.py", line 146, in output\n    return \'\'.join(output_aux(node, blocks) for node in self.nodes)\n  File "/Users/asad/Documents/workspace/web2py/gluon/template.py", line 146, in <genexpr>\n    return \'\'.join(output_aux(node, blocks) for node in self.nodes)\n  File "/Users/asad/Documents/workspace/web2py/gluon/template.py", line 74, in output_aux\n    if isinstance(node, BlockNode) \\\n  File "/Users/asad/Documents/workspace/web2py/gluon/template.py", line 146, in output\n    return \'\'.join(output_aux(node, blocks) for node in self.nodes)\n  File "/Users/asad/Documents/workspace/web2py/gluon/template.py", line 146, in <genexpr>\n    return \'\'.join(output_aux(node, blocks) for node in self.nodes)\n  File "/Users/asad/Documents/workspace/web2py/gluon/template.py", line 74, in output_aux\n    if isinstance(node, BlockNode) \\\n  File "/Users/asad/Documents/workspace/web2py/gluon/template.py", line 146, in output\n    return \'\'.join(output_aux(node, blocks) for node in self.nodes)\n  File "/Users/asad/Documents/workspace/web2py/gluon/template.py", line 146, in <genexpr>\n    return \'\'.join(output_aux(node, blocks) for node in self.nodes)\n  File "/Users/asad/Documents/workspace/web2py/gluon/template.py", line 74, in output_aux\n    if isinstance(node, BlockNode) \\\n  File "/Users/asad/Documents/workspace/web2py/gluon/template.py", line 146, in output\n    return \'\'.join(output_aux(node, blocks) for node in self.nodes)\n  File "/Users/asad/Documents/workspace/web2py/gluon/template.py", line 146, in <genexpr>\n    return \'\'.join(output_aux(node, blocks) for node in self.nodes)\n  File "/Users/asad/Documents/workspace/web2py/gluon/template.py", line 74, in output_aux\n    if isinstance(node, BlockNode) \\\n  File "/Users/asad/Documents/workspace/web2py/gluon/template.py", line 146, in output\n    return \'\'.join(output_aux(node, blocks) for node in self.nodes)\n  File "/Users/asad/Documents/workspace/web2py/gluon/template.py", line 146, in <genexpr>\n    return \'\'.join(output_aux(node, blocks) for node in self.nodes)\n  File "/Users/asad/Documents/workspace/web2py/gluon/template.py", line 74, in output_aux\n    if isinstance(node, BlockNode) \\\n  File "/Users/asad/Documents/workspace/web2py/gluon/template.py", line 146, in output\n    return \'\'.join(output_aux(node, blocks) for node in self.nodes)\n  File "/Users/asad/Documents/workspace/web2py/gluon/template.py", line 146, in <genexpr>\n    return \'\'.join(output_aux(node, blocks) for node in self.nodes)\n  File "/Users/asad/Documents/workspace/web2py/gluon/template.py", line 74, in output_aux\n    if isinstance(node, BlockNode) \\\n  File "/Users/asad/Documents/workspace/web2py/gluon/template.py", line 146, in output\n    return \'\'.join(output_aux(node, blocks) for node in self.nodes)\n  File "/Users/asad/Documents/workspace/web2py/gluon/template.py", line 146, in <genexpr>\n    return \'\'.join(output_aux(node, blocks) for node in self.nodes)\n  File "/Users/asad/Documents/workspace/web2py/gluon/template.py", line 74, in output_aux\n    if isinstance(node, BlockNode) \\\n  File "/Users/asad/Documents/workspace/web2py/gluon/template.py", line 146, in output\n    return \'\'.join(output_aux(node, blocks) for node in self.nodes)\n  File "/Users/asad/Documents/workspace/web2py/gluon/template.py", line 146, in <genexpr>\n    return \'\'.join(output_aux(node, blocks) for node in self.nodes)\n  File "/Users/asad/Documents/workspace/web2py/gluon/template.py", line 74, in output_aux\n    if isinstance(node, BlockNode) \\\n  File "/Users/asad/Documents/workspace/web2py/gluon/template.py", line 146, in output\n    return \'\'.join(output_aux(node, blocks) for node in self.nodes)\n  File "/Users/asad/Documents/workspace/web2py/gluon/template.py", line 146, in <genexpr>\n    return \'\'.join(output_aux(node, blocks) for node in self.nodes)\n  File "/Users/asad/Documents/workspace/web2py/gluon/template.py", line 74, in output_aux\n    if isinstance(node, BlockNode) \\\n  File "/Users/asad/Documents/workspace/web2py/gluon/template.py", line 146, in output\n    return \'\'.join(output_aux(node, blocks) for node in self.nodes)\n  File "/Users/asad/Documents/workspace/web2py/gluon/template.py", line 146, in <genexpr>\n    return \'\'.join(output_aux(node, blocks) for node in self.nodes)\n  File "/Users/asad/Documents/workspace/web2py/gluon/template.py", line 74, in output_aux\n    if isinstance(node, BlockNode) \\\n  File "/Users/asad/Documents/workspace/web2py/gluon/template.py", line 146, in output\n    return \'\'.join(output_aux(node, blocks) for node in self.nodes)\n  File "/Users/asad/Documents/workspace/web2py/gluon/template.py", line 146, in <genexpr>\n    return \'\'.join(output_aux(node, blocks) for node in self.nodes)\n  File "/Users/asad/Documents/workspace/web2py/gluon/template.py", line 74, in output_aux\n    if isinstance(node, BlockNode) \\\n  File "/Users/asad/Documents/workspace/web2py/gluon/template.py", line 146, in output\n    return \'\'.join(output_aux(node, blocks) for node in self.nodes)\n  File "/Users/asad/Documents/workspace/web2py/gluon/template.py", line 146, in <genexpr>\n    return \'\'.join(output_aux(node, blocks) for node in self.nodes)\n  File "/Users/asad/Documents/workspace/web2py/gluon/template.py", line 74, in output_aux\n    if isinstance(node, BlockNode) \\\n  File "/Users/asad/Documents/workspace/web2py/gluon/template.py", line 146, in output\n    return \'\'.join(output_aux(node, blocks) for node in self.nodes)\n  File "/Users/asad/Documents/workspace/web2py/gluon/template.py", line 146, in <genexpr>\n    return \'\'.join(output_aux(node, blocks) for node in self.nodes)\n  File "/Users/asad/Documents/workspace/web2py/gluon/template.py", line 74, in output_aux\n    if isinstance(node, BlockNode) \\\n  File "/Users/asad/Documents/workspace/web2py/gluon/template.py", line 146, in output\n    return \'\'.join(output_aux(node, blocks) for node in self.nodes)\n  File "/Users/asad/Documents/workspace/web2py/gluon/template.py", line 146, in <genexpr>\n    return \'\'.join(output_aux(node, blocks) for node in self.nodes)\n  File "/Users/asad/Documents/workspace/web2py/gluon/template.py", line 74, in output_aux\n    if isinstance(node, BlockNode) \\\n  File "/Users/asad/Documents/workspace/web2py/gluon/template.py", line 146, in output\n    return \'\'.join(output_aux(node, blocks) for node in self.nodes)\n  File "/Users/asad/Documents/workspace/web2py/gluon/template.py", line 146, in <genexpr>\n    return \'\'.join(output_aux(node, blocks) for node in self.nodes)\n  File "/Users/asad/Documents/workspace/web2py/gluon/template.py", line 74, in output_aux\n    if isinstance(node, BlockNode) \\\n  File "/Users/asad/Documents/workspace/web2py/gluon/template.py", line 146, in output\n    return \'\'.join(output_aux(node, blocks) for node in self.nodes)\n  File "/Users/asad/Documents/workspace/web2py/gluon/template.py", line 146, in <genexpr>\n    return \'\'.join(output_aux(node, blocks) for node in self.nodes)\n  File "/Users/asad/Documents/workspace/web2py/gluon/template.py", line 74, in output_aux\n    if isinstance(node, BlockNode) \\\n  File "/Users/asad/Documents/workspace/web2py/gluon/template.py", line 146, in output\n    return \'\'.join(output_aux(node, blocks) for node in self.nodes)\n  File "/Users/asad/Documents/workspace/web2py/gluon/template.py", line 146, in <genexpr>\n    return \'\'.join(output_aux(node, blocks) for node in self.nodes)\n  File "/Users/asad/Documents/workspace/web2py/gluon/template.py", line 74, in output_aux\n    if isinstance(node, BlockNode) \\\n  File "/Users/asad/Documents/workspace/web2py/gluon/template.py", line 146, in output\n    return \'\'.join(output_aux(node, blocks) for node in self.nodes)\n  File "/Users/asad/Documents/workspace/web2py/gluon/template.py", line 146, in <genexpr>\n    return \'\'.join(output_aux(node, blocks) for node in self.nodes)\n  File "/Users/asad/Documents/workspace/web2py/gluon/template.py", line 74, in output_aux\n    if isinstance(node, BlockNode) \\\n  File "/Users/asad/Documents/workspace/web2py/gluon/template.py", line 146, in output\n    return \'\'.join(output_aux(node, blocks) for node in self.nodes)\n  File "/Users/asad/Documents/workspace/web2py/gluon/template.py", line 146, in <genexpr>\n    return \'\'.join(output_aux(node, blocks) for node in self.nodes)\n  File "/Users/asad/Documents/workspace/web2py/gluon/template.py", line 74, in output_aux\n    if isinstance(node, BlockNode) \\\n  File "/Users/asad/Documents/workspace/web2py/gluon/template.py", line 146, in output\n    return \'\'.join(output_aux(node, blocks) for node in self.nodes)\n  File "/Users/asad/Documents/workspace/web2py/gluon/template.py", line 146, in <genexpr>\n    return \'\'.join(output_aux(node, blocks) for node in self.nodes)\n  File "/Users/asad/Documents/workspace/web2py/gluon/template.py", line 74, in output_aux\n    if isinstance(node, BlockNode) \\\n  File "/Users/asad/Documents/workspace/web2py/gluon/template.py", line 146, in output\n    return \'\'.join(output_aux(node, blocks) for node in self.nodes)\n  File "/Users/asad/Documents/workspace/web2py/gluon/template.py", line 146, in <genexpr>\n    return \'\'.join(output_aux(node, blocks) for node in self.nodes)\n  File "/Users/asad/Documents/workspace/web2py/gluon/template.py", line 74, in output_aux\n    if isinstance(node, BlockNode) \\\n  File "/Users/asad/Documents/workspace/web2py/gluon/template.py", line 146, in output\n    return \'\'.join(output_aux(node, blocks) for node in self.nodes)\n  File "/Users/asad/Documents/workspace/web2py/gluon/template.py", line 146, in <genexpr>\n    return \'\'.join(output_aux(node, blocks) for node in self.nodes)\n  File "/Users/asad/Documents/workspace/web2py/gluon/template.py", line 74, in output_aux\n    if isinstance(node, BlockNode) \\\n  File "/Users/asad/Documents/workspace/web2py/gluon/template.py", line 146, in output\n    return \'\'.join(output_aux(node, blocks) for node in self.nodes)\n  File "/Users/asad/Documents/workspace/web2py/gluon/template.py", line 146, in <genexpr>\n    return \'\'.join(output_aux(node, blocks) for node in self.nodes)\n  File "/Users/asad/Documents/workspace/web2py/gluon/template.py", line 74, in output_aux\n    if isinstance(node, BlockNode) \\\n  File "/Users/asad/Documents/workspace/web2py/gluon/template.py", line 146, in output\n    return \'\'.join(output_aux(node, blocks) for node in self.nodes)\n  File "/Users/asad/Documents/workspace/web2py/gluon/template.py", line 146, in <genexpr>\n    return \'\'.join(output_aux(node, blocks) for node in self.nodes)\n  File "/Users/asad/Documents/workspace/web2py/gluon/template.py", line 74, in output_aux\n    if isinstance(node, BlockNode) \\\n  File "/Users/asad/Documents/workspace/web2py/gluon/template.py", line 146, in output\n    return \'\'.join(output_aux(node, blocks) for node in self.nodes)\n  File "/Users/asad/Documents/workspace/web2py/gluon/template.py", line 146, in <genexpr>\n    return \'\'.join(output_aux(node, blocks) for node in self.nodes)\n  File "/Users/asad/Documents/workspace/web2py/gluon/template.py", line 74, in output_aux\n    if isinstance(node, BlockNode) \\\n  File "/Users/asad/Documents/workspace/web2py/gluon/template.py", line 146, in output\n    return \'\'.join(output_aux(node, blocks) for node in self.nodes)\n  File "/Users/asad/Documents/workspace/web2py/gluon/template.py", line 146, in <genexpr>\n    return \'\'.join(output_aux(node, blocks) for node in self.nodes)\n  File "/Users/asad/Documents/workspace/web2py/gluon/template.py", line 74, in output_aux\n    if isinstance(node, BlockNode) \\\n  File "/Users/asad/Documents/workspace/web2py/gluon/template.py", line 146, in output\n    return \'\'.join(output_aux(node, blocks) for node in self.nodes)\n  File "/Users/asad/Documents/workspace/web2py/gluon/template.py", line 146, in <genexpr>\n    return \'\'.join(output_aux(node, blocks) for node in self.nodes)\n  File "/Users/asad/Documents/workspace/web2py/gluon/template.py", line 74, in output_aux\n    if isinstance(node, BlockNode) \\\n  File "/Users/asad/Documents/workspace/web2py/gluon/template.py", line 146, in output\n    return \'\'.join(output_aux(node, blocks) for node in self.nodes)\n  File "/Users/asad/Documents/workspace/web2py/gluon/template.py", line 146, in <genexpr>\n    return \'\'.join(output_aux(node, blocks) for node in self.nodes)\n  File "/Users/asad/Documents/workspace/web2py/gluon/template.py", line 74, in output_aux\n    if isinstance(node, BlockNode) \\\n  File "/Users/asad/Documents/workspace/web2py/gluon/template.py", line 146, in output\n    return \'\'.join(output_aux(node, blocks) for node in self.nodes)\n  File "/Users/asad/Documents/workspace/web2py/gluon/template.py", line 146, in <genexpr>\n    return \'\'.join(output_aux(node, blocks) for node in self.nodes)\n  File "/Users/asad/Documents/workspace/web2py/gluon/template.py", line 74, in output_aux\n    if isinstance(node, BlockNode) \\\n  File "/Users/asad/Documents/workspace/web2py/gluon/template.py", line 146, in output\n    return \'\'.join(output_aux(node, blocks) for node in self.nodes)\n  File "/Users/asad/Documents/workspace/web2py/gluon/template.py", line 146, in <genexpr>\n    return \'\'.join(output_aux(node, blocks) for node in self.nodes)\n  File "/Users/asad/Documents/workspace/web2py/gluon/template.py", line 74, in output_aux\n    if isinstance(node, BlockNode) \\\n  File "/Users/asad/Documents/workspace/web2py/gluon/template.py", line 146, in output\n    return \'\'.join(output_aux(node, blocks) for node in self.nodes)\n  File "/Users/asad/Documents/workspace/web2py/gluon/template.py", line 146, in <genexpr>\n    return \'\'.join(output_aux(node, blocks) for node in self.nodes)\n  File "/Users/asad/Documents/workspace/web2py/gluon/template.py", line 74, in output_aux\n    if isinstance(node, BlockNode) \\\n  File "/Users/asad/Documents/workspace/web2py/gluon/template.py", line 146, in output\n    return \'\'.join(output_aux(node, blocks) for node in self.nodes)\n  File "/Users/asad/Documents/workspace/web2py/gluon/template.py", line 146, in <genexpr>\n    return \'\'.join(output_aux(node, blocks) for node in self.nodes)\n  File "/Users/asad/Documents/workspace/web2py/gluon/template.py", line 74, in output_aux\n    if isinstance(node, BlockNode) \\\n  File "/Users/asad/Documents/workspace/web2py/gluon/template.py", line 146, in output\n    return \'\'.join(output_aux(node, blocks) for node in self.nodes)\n  File "/Users/asad/Documents/workspace/web2py/gluon/template.py", line 146, in <genexpr>\n    return \'\'.join(output_aux(node, blocks) for node in self.nodes)\n  File "/Users/asad/Documents/workspace/web2py/gluon/template.py", line 74, in output_aux\n    if isinstance(node, BlockNode) \\\n  File "/Users/asad/Documents/workspace/web2py/gluon/template.py", line 146, in output\n    return \'\'.join(output_aux(node, blocks) for node in self.nodes)\n  File "/Users/asad/Documents/workspace/web2py/gluon/template.py", line 146, in <genexpr>\n    return \'\'.join(output_aux(node, blocks) for node in self.nodes)\n  File "/Users/asad/Documents/workspace/web2py/gluon/template.py", line 74, in output_aux\n    if isinstance(node, BlockNode) \\\n  File "/Users/asad/Documents/workspace/web2py/gluon/template.py", line 146, in output\n    return \'\'.join(output_aux(node, blocks) for node in self.nodes)\n  File "/Users/asad/Documents/workspace/web2py/gluon/template.py", line 146, in <genexpr>\n    return \'\'.join(output_aux(node, blocks) for node in self.nodes)\n  File "/Users/asad/Documents/workspace/web2py/gluon/template.py", line 74, in output_aux\n    if isinstance(node, BlockNode) \\\n  File "/Users/asad/Documents/workspace/web2py/gluon/template.py", line 146, in output\n    return \'\'.join(output_aux(node, blocks) for node in self.nodes)\n  File "/Users/asad/Documents/workspace/web2py/gluon/template.py", line 146, in <genexpr>\n    return \'\'.join(output_aux(node, blocks) for node in self.nodes)\n  File "/Users/asad/Documents/workspace/web2py/gluon/template.py", line 74, in output_aux\n    if isinstance(node, BlockNode) \\\n  File "/Users/asad/Documents/workspace/web2py/gluon/template.py", line 146, in output\n    return \'\'.join(output_aux(node, blocks) for node in self.nodes)\n  File "/Users/asad/Documents/workspace/web2py/gluon/template.py", line 146, in <genexpr>\n    return \'\'.join(output_aux(node, blocks) for node in self.nodes)\n  File "/Users/asad/Documents/workspace/web2py/gluon/template.py", line 74, in output_aux\n    if isinstance(node, BlockNode) \\\n  File "/Users/asad/Documents/workspace/web2py/gluon/template.py", line 146, in output\n    return \'\'.join(output_aux(node, blocks) for node in self.nodes)\n  File "/Users/asad/Documents/workspace/web2py/gluon/template.py", line 146, in <genexpr>\n    return \'\'.join(output_aux(node, blocks) for node in self.nodes)\n  File "/Users/asad/Documents/workspace/web2py/gluon/template.py", line 74, in output_aux\n    if isinstance(node, BlockNode) \\\n  File "/Users/asad/Documents/workspace/web2py/gluon/template.py", line 146, in output\n    return \'\'.join(output_aux(node, blocks) for node in self.nodes)\n  File "/Users/asad/Documents/workspace/web2py/gluon/template.py", line 146, in <genexpr>\n    return \'\'.join(output_aux(node, blocks) for node in self.nodes)\n  File "/Users/asad/Documents/workspace/web2py/gluon/template.py", line 74, in output_aux\n    if isinstance(node, BlockNode) \\\n  File "/Users/asad/Documents/workspace/web2py/gluon/template.py", line 146, in output\n    return \'\'.join(output_aux(node, blocks) for node in self.nodes)\n  File "/Users/asad/Documents/workspace/web2py/gluon/template.py", line 146, in <genexpr>\n    return \'\'.join(output_aux(node, blocks) for node in self.nodes)\n  File "/Users/asad/Documents/workspace/web2py/gluon/template.py", line 74, in output_aux\n    if isinstance(node, BlockNode) \\\n  File "/Users/asad/Documents/workspace/web2py/gluon/template.py", line 146, in output\n    return \'\'.join(output_aux(node, blocks) for node in self.nodes)\n  File "/Users/asad/Documents/workspace/web2py/gluon/template.py", line 146, in <genexpr>\n    return \'\'.join(output_aux(node, blocks) for node in self.nodes)\n  File "/Users/asad/Documents/workspace/web2py/gluon/template.py", line 74, in output_aux\n    if isinstance(node, BlockNode) \\\n  File "/Users/asad/Documents/workspace/web2py/gluon/template.py", line 146, in output\n    return \'\'.join(output_aux(node, blocks) for node in self.nodes)\n  File "/Users/asad/Documents/workspace/web2py/gluon/template.py", line 146, in <genexpr>\n    return \'\'.join(output_aux(node, blocks) for node in self.nodes)\n  File "/Users/asad/Documents/workspace/web2py/gluon/template.py", line 74, in output_aux\n    if isinstance(node, BlockNode) \\\n  File "/Users/asad/Documents/workspace/web2py/gluon/template.py", line 146, in output\n    return \'\'.join(output_aux(node, blocks) for node in self.nodes)\n  File "/Users/asad/Documents/workspace/web2py/gluon/template.py", line 146, in <genexpr>\n    return \'\'.join(output_aux(node, blocks) for node in self.nodes)\n  File "/Users/asad/Documents/workspace/web2py/gluon/template.py", line 74, in output_aux\n    if isinstance(node, BlockNode) \\\n  File "/Users/asad/Documents/workspace/web2py/gluon/template.py", line 146, in output\n    return \'\'.join(output_aux(node, blocks) for node in self.nodes)\n  File "/Users/asad/Documents/workspace/web2py/gluon/template.py", line 146, in <genexpr>\n    return \'\'.join(output_aux(node, blocks) for node in self.nodes)\n  File "/Users/asad/Documents/workspace/web2py/gluon/template.py", line 74, in output_aux\n    if isinstance(node, BlockNode) \\\n  File "/Users/asad/Documents/workspace/web2py/gluon/template.py", line 146, in output\n    return \'\'.join(output_aux(node, blocks) for node in self.nodes)\n  File "/Users/asad/Documents/workspace/web2py/gluon/template.py", line 146, in <genexpr>\n    return \'\'.join(output_aux(node, blocks) for node in self.nodes)\n  File "/Users/asad/Documents/workspace/web2py/gluon/template.py", line 74, in output_aux\n    if isinstance(node, BlockNode) \\\n  File "/Users/asad/Documents/workspace/web2py/gluon/template.py", line 146, in output\n    return \'\'.join(output_aux(node, blocks) for node in self.nodes)\n  File "/Users/asad/Documents/workspace/web2py/gluon/template.py", line 146, in <genexpr>\n    return \'\'.join(output_aux(node, blocks) for node in self.nodes)\n  File "/Users/asad/Documents/workspace/web2py/gluon/template.py", line 74, in output_aux\n    if isinstance(node, BlockNode) \\\n  File "/Users/asad/Documents/workspace/web2py/gluon/template.py", line 146, in output\n    return \'\'.join(output_aux(node, blocks) for node in self.nodes)\n  File "/Users/asad/Documents/workspace/web2py/gluon/template.py", line 146, in <genexpr>\n    return \'\'.join(output_aux(node, blocks) for node in self.nodes)\n  File "/Users/asad/Documents/workspace/web2py/gluon/template.py", line 74, in output_aux\n    if isinstance(node, BlockNode) \\\n  File "/Users/asad/Documents/workspace/web2py/gluon/template.py", line 146, in output\n    return \'\'.join(output_aux(node, blocks) for node in self.nodes)\n  File "/Users/asad/Documents/workspace/web2py/gluon/template.py", line 146, in <genexpr>\n    return \'\'.join(output_aux(node, blocks) for node in self.nodes)\n  File "/Users/asad/Documents/workspace/web2py/gluon/template.py", line 74, in output_aux\n    if isinstance(node, BlockNode) \\\n  File "/Users/asad/Documents/workspace/web2py/gluon/template.py", line 146, in output\n    return \'\'.join(output_aux(node, blocks) for node in self.nodes)\n  File "/Users/asad/Documents/workspace/web2py/gluon/template.py", line 146, in <genexpr>\n    return \'\'.join(output_aux(node, blocks) for node in self.nodes)\n  File "/Users/asad/Documents/workspace/web2py/gluon/template.py", line 74, in output_aux\n    if isinstance(node, BlockNode) \\\n  File "/Users/asad/Documents/workspace/web2py/gluon/template.py", line 146, in output\n    return \'\'.join(output_aux(node, blocks) for node in self.nodes)\n  File "/Users/asad/Documents/workspace/web2py/gluon/template.py", line 146, in <genexpr>\n    return \'\'.join(output_aux(node, blocks) for node in self.nodes)\n  File "/Users/asad/Documents/workspace/web2py/gluon/template.py", line 74, in output_aux\n    if isinstance(node, BlockNode) \\\n  File "/Users/asad/Documents/workspace/web2py/gluon/template.py", line 146, in output\n    return \'\'.join(output_aux(node, blocks) for node in self.nodes)\n  File "/Users/asad/Documents/workspace/web2py/gluon/template.py", line 146, in <genexpr>\n    return \'\'.join(output_aux(node, blocks) for node in self.nodes)\n  File "/Users/asad/Documents/workspace/web2py/gluon/template.py", line 74, in output_aux\n    if isinstance(node, BlockNode) \\\n  File "/Users/asad/Documents/workspace/web2py/gluon/template.py", line 146, in output\n    return \'\'.join(output_aux(node, blocks) for node in self.nodes)\n  File "/Users/asad/Documents/workspace/web2py/gluon/template.py", line 146, in <genexpr>\n    return \'\'.join(output_aux(node, blocks) for node in self.nodes)\n  File "/Users/asad/Documents/workspace/web2py/gluon/template.py", line 74, in output_aux\n    if isinstance(node, BlockNode) \\\n  File "/Users/asad/Documents/workspace/web2py/gluon/template.py", line 146, in output\n    return \'\'.join(output_aux(node, blocks) for node in self.nodes)\n  File "/Users/asad/Documents/workspace/web2py/gluon/template.py", line 146, in <genexpr>\n    return \'\'.join(output_aux(node, blocks) for node in self.nodes)\n  File "/Users/asad/Documents/workspace/web2py/gluon/template.py", line 74, in output_aux\n    if isinstance(node, BlockNode) \\\n  File "/Users/asad/Documents/workspace/web2py/gluon/template.py", line 146, in output\n    return \'\'.join(output_aux(node, blocks) for node in self.nodes)\n  File "/Users/asad/Documents/workspace/web2py/gluon/template.py", line 146, in <genexpr>\n    return \'\'.join(output_aux(node, blocks) for node in self.nodes)\n  File "/Users/asad/Documents/workspace/web2py/gluon/template.py", line 74, in output_aux\n    if isinstance(node, BlockNode) \\\n  File "/Users/asad/Documents/workspace/web2py/gluon/template.py", line 146, in output\n    return \'\'.join(output_aux(node, blocks) for node in self.nodes)\n  File "/Users/asad/Documents/workspace/web2py/gluon/template.py", line 146, in <genexpr>\n    return \'\'.join(output_aux(node, blocks) for node in self.nodes)\n  File "/Users/asad/Documents/workspace/web2py/gluon/template.py", line 74, in output_aux\n    if isinstance(node, BlockNode) \\\n  File "/Users/asad/Documents/workspace/web2py/gluon/template.py", line 146, in output\n    return \'\'.join(output_aux(node, blocks) for node in self.nodes)\n  File "/Users/asad/Documents/workspace/web2py/gluon/template.py", line 146, in <genexpr>\n    return \'\'.join(output_aux(node, blocks) for node in self.nodes)\n  File "/Users/asad/Documents/workspace/web2py/gluon/template.py", line 74, in output_aux\n    if isinstance(node, BlockNode) \\\n  File "/Users/asad/Documents/workspace/web2py/gluon/template.py", line 146, in output\n    return \'\'.join(output_aux(node, blocks) for node in self.nodes)\n  File "/Users/asad/Documents/workspace/web2py/gluon/template.py", line 146, in <genexpr>\n    return \'\'.join(output_aux(node, blocks) for node in self.nodes)\n  File "/Users/asad/Documents/workspace/web2py/gluon/template.py", line 74, in output_aux\n    if isinstance(node, BlockNode) \\\n  File "/Users/asad/Documents/workspace/web2py/gluon/template.py", line 146, in output\n    return \'\'.join(output_aux(node, blocks) for node in self.nodes)\n  File "/Users/asad/Documents/workspace/web2py/gluon/template.py", line 146, in <genexpr>\n    return \'\'.join(output_aux(node, blocks) for node in self.nodes)\n  File "/Users/asad/Documents/workspace/web2py/gluon/template.py", line 74, in output_aux\n    if isinstance(node, BlockNode) \\\n  File "/Users/asad/Documents/workspace/web2py/gluon/template.py", line 146, in output\n    return \'\'.join(output_aux(node, blocks) for node in self.nodes)\n  File "/Users/asad/Documents/workspace/web2py/gluon/template.py", line 146, in <genexpr>\n    return \'\'.join(output_aux(node, blocks) for node in self.nodes)\n  File "/Users/asad/Documents/workspace/web2py/gluon/template.py", line 74, in output_aux\n    if isinstance(node, BlockNode) \\\n  File "/Users/asad/Documents/workspace/web2py/gluon/template.py", line 146, in output\n    return \'\'.join(output_aux(node, blocks) for node in self.nodes)\n  File "/Users/asad/Documents/workspace/web2py/gluon/template.py", line 146, in <genexpr>\n    return \'\'.join(output_aux(node, blocks) for node in self.nodes)\n  File "/Users/asad/Documents/workspace/web2py/gluon/template.py", line 74, in output_aux\n    if isinstance(node, BlockNode) \\\n  File "/Users/asad/Documents/workspace/web2py/gluon/template.py", line 146, in output\n    return \'\'.join(output_aux(node, blocks) for node in self.nodes)\n  File "/Users/asad/Documents/workspace/web2py/gluon/template.py", line 146, in <genexpr>\n    return \'\'.join(output_aux(node, blocks) for node in self.nodes)\n  File "/Users/asad/Documents/workspace/web2py/gluon/template.py", line 74, in output_aux\n    if isinstance(node, BlockNode) \\\n  File "/Users/asad/Documents/workspace/web2py/gluon/template.py", line 146, in output\n    return \'\'.join(output_aux(node, blocks) for node in self.nodes)\n  File "/Users/asad/Documents/workspace/web2py/gluon/template.py", line 146, in <genexpr>\n    return \'\'.join(output_aux(node, blocks) for node in self.nodes)\n  File "/Users/asad/Documents/workspace/web2py/gluon/template.py", line 74, in output_aux\n    if isinstance(node, BlockNode) \\\n  File "/Users/asad/Documents/workspace/web2py/gluon/template.py", line 146, in output\n    return \'\'.join(output_aux(node, blocks) for node in self.nodes)\n  File "/Users/asad/Documents/workspace/web2py/gluon/template.py", line 146, in <genexpr>\n    return \'\'.join(output_aux(node, blocks) for node in self.nodes)\n  File "/Users/asad/Documents/workspace/web2py/gluon/template.py", line 74, in output_aux\n    if isinstance(node, BlockNode) \\\n  File "/Users/asad/Documents/workspace/web2py/gluon/template.py", line 146, in output\n    return \'\'.join(output_aux(node, blocks) for node in self.nodes)\n  File "/Users/asad/Documents/workspace/web2py/gluon/template.py", line 146, in <genexpr>\n    return \'\'.join(output_aux(node, blocks) for node in self.nodes)\n  File "/Users/asad/Documents/workspace/web2py/gluon/template.py", line 74, in output_aux\n    if isinstance(node, BlockNode) \\\n  File "/Users/asad/Documents/workspace/web2py/gluon/template.py", line 146, in output\n    return \'\'.join(output_aux(node, blocks) for node in self.nodes)\n  File "/Users/asad/Documents/workspace/web2py/gluon/template.py", line 146, in <genexpr>\n    return \'\'.join(output_aux(node, blocks) for node in self.nodes)\n  File "/Users/asad/Documents/workspace/web2py/gluon/template.py", line 74, in output_aux\n    if isinstance(node, BlockNode) \\\n  File "/Users/asad/Documents/workspace/web2py/gluon/template.py", line 146, in output\n    return \'\'.join(output_aux(node, blocks) for node in self.nodes)\n  File "/Users/asad/Documents/workspace/web2py/gluon/template.py", line 146, in <genexpr>\n    return \'\'.join(output_aux(node, blocks) for node in self.nodes)\n  File "/Users/asad/Documents/workspace/web2py/gluon/template.py", line 74, in output_aux\n    if isinstance(node, BlockNode) \\\n  File "/Users/asad/Documents/workspace/web2py/gluon/template.py", line 146, in output\n    return \'\'.join(output_aux(node, blocks) for node in self.nodes)\n  File "/Users/asad/Documents/workspace/web2py/gluon/template.py", line 146, in <genexpr>\n    return \'\'.join(output_aux(node, blocks) for node in self.nodes)\n  File "/Users/asad/Documents/workspace/web2py/gluon/template.py", line 74, in output_aux\n    if isinstance(node, BlockNode) \\\n  File "/Users/asad/Documents/workspace/web2py/gluon/template.py", line 146, in output\n    return \'\'.join(output_aux(node, blocks) for node in self.nodes)\n  File "/Users/asad/Documents/workspace/web2py/gluon/template.py", line 146, in <genexpr>\n    return \'\'.join(output_aux(node, blocks) for node in self.nodes)\n  File "/Users/asad/Documents/workspace/web2py/gluon/template.py", line 74, in output_aux\n    if isinstance(node, BlockNode) \\\n  File "/Users/asad/Documents/workspace/web2py/gluon/template.py", line 146, in output\n    return \'\'.join(output_aux(node, blocks) for node in self.nodes)\n  File "/Users/asad/Documents/workspace/web2py/gluon/template.py", line 146, in <genexpr>\n    return \'\'.join(output_aux(node, blocks) for node in self.nodes)\n  File "/Users/asad/Documents/workspace/web2py/gluon/template.py", line 74, in output_aux\n    if isinstance(node, BlockNode) \\\n  File "/Users/asad/Documents/workspace/web2py/gluon/template.py", line 146, in output\n    return \'\'.join(output_aux(node, blocks) for node in self.nodes)\n  File "/Users/asad/Documents/workspace/web2py/gluon/template.py", line 146, in <genexpr>\n    return \'\'.join(output_aux(node, blocks) for node in self.nodes)\n  File "/Users/asad/Documents/workspace/web2py/gluon/template.py", line 74, in output_aux\n    if isinstance(node, BlockNode) \\\n  File "/Users/asad/Documents/workspace/web2py/gluon/template.py", line 146, in output\n    return \'\'.join(output_aux(node, blocks) for node in self.nodes)\n  File "/Users/asad/Documents/workspace/web2py/gluon/template.py", line 146, in <genexpr>\n    return \'\'.join(output_aux(node, blocks) for node in self.nodes)\n  File "/Users/asad/Documents/workspace/web2py/gluon/template.py", line 74, in output_aux\n    if isinstance(node, BlockNode) \\\n  File "/Users/asad/Documents/workspace/web2py/gluon/template.py", line 146, in output\n    return \'\'.join(output_aux(node, blocks) for node in self.nodes)\n  File "/Users/asad/Documents/workspace/web2py/gluon/template.py", line 146, in <genexpr>\n    return \'\'.join(output_aux(node, blocks) for node in self.nodes)\n  File "/Users/asad/Documents/workspace/web2py/gluon/template.py", line 74, in output_aux\n    if isinstance(node, BlockNode) \\\n  File "/Users/asad/Documents/workspace/web2py/gluon/template.py", line 146, in output\n    return \'\'.join(output_aux(node, blocks) for node in self.nodes)\n  File "/Users/asad/Documents/workspace/web2py/gluon/template.py", line 146, in <genexpr>\n    return \'\'.join(output_aux(node, blocks) for node in self.nodes)\n  File "/Users/asad/Documents/workspace/web2py/gluon/template.py", line 74, in output_aux\n    if isinstance(node, BlockNode) \\\n  File "/Users/asad/Documents/workspace/web2py/gluon/template.py", line 146, in output\n    return \'\'.join(output_aux(node, blocks) for node in self.nodes)\n  File "/Users/asad/Documents/workspace/web2py/gluon/template.py", line 146, in <genexpr>\n    return \'\'.join(output_aux(node, blocks) for node in self.nodes)\n  File "/Users/asad/Documents/workspace/web2py/gluon/template.py", line 74, in output_aux\n    if isinstance(node, BlockNode) \\\n  File "/Users/asad/Documents/workspace/web2py/gluon/template.py", line 146, in output\n    return \'\'.join(output_aux(node, blocks) for node in self.nodes)\n  File "/Users/asad/Documents/workspace/web2py/gluon/template.py", line 146, in <genexpr>\n    return \'\'.join(output_aux(node, blocks) for node in self.nodes)\n  File "/Users/asad/Documents/workspace/web2py/gluon/template.py", line 74, in output_aux\n    if isinstance(node, BlockNode) \\\n  File "/Users/asad/Documents/workspace/web2py/gluon/template.py", line 146, in output\n    return \'\'.join(output_aux(node, blocks) for node in self.nodes)\n  File "/Users/asad/Documents/workspace/web2py/gluon/template.py", line 146, in <genexpr>\n    return \'\'.join(output_aux(node, blocks) for node in self.nodes)\n  File "/Users/asad/Documents/workspace/web2py/gluon/template.py", line 74, in output_aux\n    if isinstance(node, BlockNode) \\\n  File "/Users/asad/Documents/workspace/web2py/gluon/template.py", line 146, in output\n    return \'\'.join(output_aux(node, blocks) for node in self.nodes)\n  File "/Users/asad/Documents/workspace/web2py/gluon/template.py", line 146, in <genexpr>\n    return \'\'.join(output_aux(node, blocks) for node in self.nodes)\n  File "/Users/asad/Documents/workspace/web2py/gluon/template.py", line 74, in output_aux\n    if isinstance(node, BlockNode) \\\n  File "/Users/asad/Documents/workspace/web2py/gluon/template.py", line 146, in output\n    return \'\'.join(output_aux(node, blocks) for node in self.nodes)\n  File "/Users/asad/Documents/workspace/web2py/gluon/template.py", line 146, in <genexpr>\n    return \'\'.join(output_aux(node, blocks) for node in self.nodes)\n  File "/Users/asad/Documents/workspace/web2py/gluon/template.py", line 74, in output_aux\n    if isinstance(node, BlockNode) \\\n  File "/Users/asad/Documents/workspace/web2py/gluon/template.py", line 146, in output\n    return \'\'.join(output_aux(node, blocks) for node in self.nodes)\n  File "/Users/asad/Documents/workspace/web2py/gluon/template.py", line 146, in <genexpr>\n    return \'\'.join(output_aux(node, blocks) for node in self.nodes)\n  File "/Users/asad/Documents/workspace/web2py/gluon/template.py", line 74, in output_aux\n    if isinstance(node, BlockNode) \\\n  File "/Users/asad/Documents/workspace/web2py/gluon/template.py", line 146, in output\n    return \'\'.join(output_aux(node, blocks) for node in self.nodes)\n  File "/Users/asad/Documents/workspace/web2py/gluon/template.py", line 146, in <genexpr>\n    return \'\'.join(output_aux(node, blocks) for node in self.nodes)\n  File "/Users/asad/Documents/workspace/web2py/gluon/template.py", line 74, in output_aux\n    if isinstance(node, BlockNode) \\\n  File "/Users/asad/Documents/workspace/web2py/gluon/template.py", line 146, in output\n    return \'\'.join(output_aux(node, blocks) for node in self.nodes)\n  File "/Users/asad/Documents/workspace/web2py/gluon/template.py", line 146, in <genexpr>\n    return \'\'.join(output_aux(node, blocks) for node in self.nodes)\n  File "/Users/asad/Documents/workspace/web2py/gluon/template.py", line 74, in output_aux\n    if isinstance(node, BlockNode) \\\n  File "/Users/asad/Documents/workspace/web2py/gluon/template.py", line 146, in output\n    return \'\'.join(output_aux(node, blocks) for node in self.nodes)\n  File "/Users/asad/Documents/workspace/web2py/gluon/template.py", line 146, in <genexpr>\n    return \'\'.join(output_aux(node, blocks) for node in self.nodes)\n  File "/Users/asad/Documents/workspace/web2py/gluon/template.py", line 74, in output_aux\n    if isinstance(node, BlockNode) \\\n  File "/Users/asad/Documents/workspace/web2py/gluon/template.py", line 146, in output\n    return \'\'.join(output_aux(node, blocks) for node in self.nodes)\n  File "/Users/asad/Documents/workspace/web2py/gluon/template.py", line 146, in <genexpr>\n    return \'\'.join(output_aux(node, blocks) for node in self.nodes)\n  File "/Users/asad/Documents/workspace/web2py/gluon/template.py", line 74, in output_aux\n    if isinstance(node, BlockNode) \\\n  File "/Users/asad/Documents/workspace/web2py/gluon/template.py", line 146, in output\n    return \'\'.join(output_aux(node, blocks) for node in self.nodes)\n  File "/Users/asad/Documents/workspace/web2py/gluon/template.py", line 146, in <genexpr>\n    return \'\'.join(output_aux(node, blocks) for node in self.nodes)\n  File "/Users/asad/Documents/workspace/web2py/gluon/template.py", line 74, in output_aux\n    if isinstance(node, BlockNode) \\\n  File "/Users/asad/Documents/workspace/web2py/gluon/template.py", line 146, in output\n    return \'\'.join(output_aux(node, blocks) for node in self.nodes)\n  File "/Users/asad/Documents/workspace/web2py/gluon/template.py", line 146, in <genexpr>\n    return \'\'.join(output_aux(node, blocks) for node in self.nodes)\n  File "/Users/asad/Documents/workspace/web2py/gluon/template.py", line 74, in output_aux\n    if isinstance(node, BlockNode) \\\n  File "/Users/asad/Documents/workspace/web2py/gluon/template.py", line 146, in output\n    return \'\'.join(output_aux(node, blocks) for node in self.nodes)\n  File "/Users/asad/Documents/workspace/web2py/gluon/template.py", line 146, in <genexpr>\n    return \'\'.join(output_aux(node, blocks) for node in self.nodes)\n  File "/Users/asad/Documents/workspace/web2py/gluon/template.py", line 74, in output_aux\n    if isinstance(node, BlockNode) \\\n  File "/Users/asad/Documents/workspace/web2py/gluon/template.py", line 146, in output\n    return \'\'.join(output_aux(node, blocks) for node in self.nodes)\n  File "/Users/asad/Documents/workspace/web2py/gluon/template.py", line 146, in <genexpr>\n    return \'\'.join(output_aux(node, blocks) for node in self.nodes)\n  File "/Users/asad/Documents/workspace/web2py/gluon/template.py", line 74, in output_aux\n    if isinstance(node, BlockNode) \\\n  File "/Users/asad/Documents/workspace/web2py/gluon/template.py", line 146, in output\n    return \'\'.join(output_aux(node, blocks) for node in self.nodes)\n  File "/Users/asad/Documents/workspace/web2py/gluon/template.py", line 146, in <genexpr>\n    return \'\'.join(output_aux(node, blocks) for node in self.nodes)\n  File "/Users/asad/Documents/workspace/web2py/gluon/template.py", line 74, in output_aux\n    if isinstance(node, BlockNode) \\\n  File "/Users/asad/Documents/workspace/web2py/gluon/template.py", line 146, in output\n    return \'\'.join(output_aux(node, blocks) for node in self.nodes)\n  File "/Users/asad/Documents/workspace/web2py/gluon/template.py", line 146, in <genexpr>\n    return \'\'.join(output_aux(node, blocks) for node in self.nodes)\n  File "/Users/asad/Documents/workspace/web2py/gluon/template.py", line 74, in output_aux\n    if isinstance(node, BlockNode) \\\n  File "/Users/asad/Documents/workspace/web2py/gluon/template.py", line 146, in output\n    return \'\'.join(output_aux(node, blocks) for node in self.nodes)\n  File "/Users/asad/Documents/workspace/web2py/gluon/template.py", line 146, in <genexpr>\n    return \'\'.join(output_aux(node, blocks) for node in self.nodes)\n  File "/Users/asad/Documents/workspace/web2py/gluon/template.py", line 74, in output_aux\n    if isinstance(node, BlockNode) \\\n  File "/Users/asad/Documents/workspace/web2py/gluon/template.py", line 146, in output\n    return \'\'.join(output_aux(node, blocks) for node in self.nodes)\n  File "/Users/asad/Documents/workspace/web2py/gluon/template.py", line 146, in <genexpr>\n    return \'\'.join(output_aux(node, blocks) for node in self.nodes)\n  File "/Users/asad/Documents/workspace/web2py/gluon/template.py", line 74, in output_aux\n    if isinstance(node, BlockNode) \\\n  File "/Users/asad/Documents/workspace/web2py/gluon/template.py", line 146, in output\n    return \'\'.join(output_aux(node, blocks) for node in self.nodes)\n  File "/Users/asad/Documents/workspace/web2py/gluon/template.py", line 146, in <genexpr>\n    return \'\'.join(output_aux(node, blocks) for node in self.nodes)\n  File "/Users/asad/Documents/workspace/web2py/gluon/template.py", line 74, in output_aux\n    if isinstance(node, BlockNode) \\\n  File "/Users/asad/Documents/workspace/web2py/gluon/template.py", line 146, in output\n    return \'\'.join(output_aux(node, blocks) for node in self.nodes)\n  File "/Users/asad/Documents/workspace/web2py/gluon/template.py", line 146, in <genexpr>\n    return \'\'.join(output_aux(node, blocks) for node in self.nodes)\n  File "/Users/asad/Documents/workspace/web2py/gluon/template.py", line 74, in output_aux\n    if isinstance(node, BlockNode) \\\n  File "/Users/asad/Documents/workspace/web2py/gluon/template.py", line 146, in output\n    return \'\'.join(output_aux(node, blocks) for node in self.nodes)\n  File "/Users/asad/Documents/workspace/web2py/gluon/template.py", line 146, in <genexpr>\n    return \'\'.join(output_aux(node, blocks) for node in self.nodes)\n  File "/Users/asad/Documents/workspace/web2py/gluon/template.py", line 74, in output_aux\n    if isinstance(node, BlockNode) \\\n  File "/Users/asad/Documents/workspace/web2py/gluon/template.py", line 146, in output\n    return \'\'.join(output_aux(node, blocks) for node in self.nodes)\n  File "/Users/asad/Documents/workspace/web2py/gluon/template.py", line 146, in <genexpr>\n    return \'\'.join(output_aux(node, blocks) for node in self.nodes)\n  File "/Users/asad/Documents/workspace/web2py/gluon/template.py", line 74, in output_aux\n    if isinstance(node, BlockNode) \\\n  File "/Users/asad/Documents/workspace/web2py/gluon/template.py", line 146, in output\n    return \'\'.join(output_aux(node, blocks) for node in self.nodes)\n  File "/Users/asad/Documents/workspace/web2py/gluon/template.py", line 146, in <genexpr>\n    return \'\'.join(output_aux(node, blocks) for node in self.nodes)\n  File "/Users/asad/Documents/workspace/web2py/gluon/template.py", line 74, in output_aux\n    if isinstance(node, BlockNode) \\\n  File "/Users/asad/Documents/workspace/web2py/gluon/template.py", line 146, in output\n    return \'\'.join(output_aux(node, blocks) for node in self.nodes)\n  File "/Users/asad/Documents/workspace/web2py/gluon/template.py", line 146, in <genexpr>\n    return \'\'.join(output_aux(node, blocks) for node in self.nodes)\n  File "/Users/asad/Documents/workspace/web2py/gluon/template.py", line 74, in output_aux\n    if isinstance(node, BlockNode) \\\n  File "/Users/asad/Documents/workspace/web2py/gluon/template.py", line 146, in output\n    return \'\'.join(output_aux(node, blocks) for node in self.nodes)\n  File "/Users/asad/Documents/workspace/web2py/gluon/template.py", line 146, in <genexpr>\n    return \'\'.join(output_aux(node, blocks) for node in self.nodes)\n  File "/Users/asad/Documents/workspace/web2py/gluon/template.py", line 74, in output_aux\n    if isinstance(node, BlockNode) \\\n  File "/Users/asad/Documents/workspace/web2py/gluon/template.py", line 146, in output\n    return \'\'.join(output_aux(node, blocks) for node in self.nodes)\n  File "/Users/asad/Documents/workspace/web2py/gluon/template.py", line 146, in <genexpr>\n    return \'\'.join(output_aux(node, blocks) for node in self.nodes)\n  File "/Users/asad/Documents/workspace/web2py/gluon/template.py", line 74, in output_aux\n    if isinstance(node, BlockNode) \\\n  File "/Users/asad/Documents/workspace/web2py/gluon/template.py", line 146, in output\n    return \'\'.join(output_aux(node, blocks) for node in self.nodes)\n  File "/Users/asad/Documents/workspace/web2py/gluon/template.py", line 146, in <genexpr>\n    return \'\'.join(output_aux(node, blocks) for node in self.nodes)\n  File "/Users/asad/Documents/workspace/web2py/gluon/template.py", line 74, in output_aux\n    if isinstance(node, BlockNode) \\\n  File "/Users/asad/Documents/workspace/web2py/gluon/template.py", line 146, in output\n    return \'\'.join(output_aux(node, blocks) for node in self.nodes)\n  File "/Users/asad/Documents/workspace/web2py/gluon/template.py", line 146, in <genexpr>\n    return \'\'.join(output_aux(node, blocks) for node in self.nodes)\n  File "/Users/asad/Documents/workspace/web2py/gluon/template.py", line 74, in output_aux\n    if isinstance(node, BlockNode) \\\n  File "/Users/asad/Documents/workspace/web2py/gluon/template.py", line 146, in output\n    return \'\'.join(output_aux(node, blocks) for node in self.nodes)\n  File "/Users/asad/Documents/workspace/web2py/gluon/template.py", line 146, in <genexpr>\n    return \'\'.join(output_aux(node, blocks) for node in self.nodes)\n  File "/Users/asad/Documents/workspace/web2py/gluon/template.py", line 74, in output_aux\n    if isinstance(node, BlockNode) \\\n  File "/Users/asad/Documents/workspace/web2py/gluon/template.py", line 146, in output\n    return \'\'.join(output_aux(node, blocks) for node in self.nodes)\n  File "/Users/asad/Documents/workspace/web2py/gluon/template.py", line 146, in <genexpr>\n    return \'\'.join(output_aux(node, blocks) for node in self.nodes)\n  File "/Users/asad/Documents/workspace/web2py/gluon/template.py", line 74, in output_aux\n    if isinstance(node, BlockNode) \\\n  File "/Users/asad/Documents/workspace/web2py/gluon/template.py", line 146, in output\n    return \'\'.join(output_aux(node, blocks) for node in self.nodes)\n  File "/Users/asad/Documents/workspace/web2py/gluon/template.py", line 146, in <genexpr>\n    return \'\'.join(output_aux(node, blocks) for node in self.nodes)\n  File "/Users/asad/Documents/workspace/web2py/gluon/template.py", line 74, in output_aux\n    if isinstance(node, BlockNode) \\\n  File "/Users/asad/Documents/workspace/web2py/gluon/template.py", line 146, in output\n    return \'\'.join(output_aux(node, blocks) for node in self.nodes)\n  File "/Users/asad/Documents/workspace/web2py/gluon/template.py", line 146, in <genexpr>\n    return \'\'.join(output_aux(node, blocks) for node in self.nodes)\n  File "/Users/asad/Documents/workspace/web2py/gluon/template.py", line 75, in output_aux\n    else str(node)\n  File "/Users/asad/Documents/workspace/web2py/gluon/template.py", line 44, in __str__\n    def __str__(self):\n  File "/Users/asad/Documents/workspace/web2py/gluon/contrib/dbg.py", line 114, in trace_dispatch\n    return self.dispatch_call(frame, arg)\n  File "/System/Library/Frameworks/Python.framework/Versions/2.7/lib/python2.7/bdb.py", line 77, in dispatch_call\n    if not (self.stop_here(frame) or self.break_anywhere(frame)):\n  File "/System/Library/Frameworks/Python.framework/Versions/2.7/lib/python2.7/bdb.py", line 152, in break_anywhere\n    return self.canonic(frame.f_code.co_filename) in self.breaks\nRuntimeError: maximum recursion depth exceeded\n'
p9
s.