(dp1
S'output'
p2
S'missing "pass" in view'
p3
sS'layer'
p4
S'ParserContainer'
p5
sS'code'
p6
S'response.write(\'<!DOCTYPE html>\\n<!--[if (gt IE 9)|!(IE)]><!--> <html class="no-js" lang="\', escape=False)\nresponse.write(T.accepted_language or \'en\')\nresponse.write(\'"> <!--<![endif]-->\\n  <head>\\n    <meta charset="utf-8">\\n    <!-- www.phpied.com/conditional-comments-block-downloads/ -->\\n    <!-- Always force latest IE rendering engine\\n         (even in intranet) & Chrome Frame\\n         Remove this if you use the .htaccess -->\\n    <meta http-equiv="X-UA-Compatible" content="IE=edge\', escape=False)\nresponse.write(not request.is_local and \',chrome=1\' or \'\')\nresponse.write(\'">\\n    <!--  Mobile Viewport Fix\\n          j.mp/mobileviewport & davidbcalhoun.com/2010/viewport-metatag\\n          device-width: Occupy full width of the screen in its current orientation\\n          initial-scale = 1.0 retains dimensions instead of zooming out if page height > device height\\n          user-scalable = yes allows the user to zoom in -->\\n    <meta name="viewport" content="width=device-width, initial-scale=1.0">\\n    <title>\', escape=False)\nresponse.write(response.title or request.application)\nresponse.write(\'</title>\\n    <!-- http://dev.w3.org/html5/markup/meta.name.html -->\\n    <meta name="application-name" content="\', escape=False)\nresponse.write(request.application)\nresponse.write(\'">\\n    <!-- Speaking of Google, don\\\'t forget to set your site up:\\n         http://google.com/webmasters -->\\n    <meta name="google-site-verification" content="">\\n    <!-- include stylesheets -->\\n    <link rel="stylesheet" href="\', escape=False)\nresponse.write(URL(\'static\',\'css/bootstrap.min.css\'))\nresponse.write(\'"/>\\n    <!-- <link rel="stylesheet" href="\', escape=False)\nresponse.write(URL(\'static\',\'css/web2py-bootstrap3.css\'))\nresponse.write(\'"/> -->\\n    <link rel="stylesheet" href="\', escape=False)\nresponse.write(URL(\'static\',\'ionicons/css/ionicons.min.css\'))\nresponse.write(\'">\\n    <!-- main css -->\\n    <link rel="stylesheet" href="\', escape=False)\nresponse.write(URL(\'static\',\'css/style.css\'))\nresponse.write(\'" >\\n    <!-- image gallery includes -->\\n    <link rel="stylesheet" href="https://cdnjs.cloudflare.com/ajax/libs/baguettebox.js/1.8.1/baguetteBox.min.css">\\n\\n    <link rel="shortcut icon" href="\', escape=False)\nresponse.write(URL(\'static\',\'images/favi_red.png\'))\nresponse.write(\'" type="image/x-icon">\\n    <link rel="apple-touch-icon" href="\', escape=False)\nresponse.write(URL(\'static\',\'images/favi_red.png\'))\nresponse.write(\'">\\n    <!-- All JavaScript at the bottom, except for Modernizr which enables\\n         HTML5 elements & feature detects -->\\n    <script src="\', escape=False)\nresponse.write(URL(\'static\',\'js/modernizr-2.8.3.min.js\'))\nresponse.write(\'"></script>\\n    <!-- <script src="\', escape=False)\nresponse.write(URL(\'static\',\'js/modernizr.js\'))\nresponse.write(\'"></script> -->\\n    <!--[if lt IE 9]>\\n        <script src="\', escape=False)\nresponse.write(URL(\'static\',\'js/respond-1.4.2.min.js\'))\nresponse.write(\'"></script>\\n        <![endif]-->\\n    <!-- Favicons -->\\n    \', escape=False)\nresponse.write(\'<script type="text/javascript"><!--\\n    // These variables are used by the web2py_ajax_init function in web2py_ajax.js (which is loaded below).\\n    \', escape=False)\nresponse.write(ASSIGNJS(\nw2p_ajax_confirm_message = T(\'Are you sure you want to delete this object?\'),\nw2p_ajax_disable_with_message = T(\'Working...\'),\nw2p_ajax_date_format = T(\'%Y-%m-%d\'),\nw2p_ajax_datetime_format = T(\'%Y-%m-%d %H:%M:%S\'),\najax_error_500 = T.M(\'An error occured, please [[reload %s]] the page\') % URL(args=request.args, vars=request.get_vars)\n))\nresponse.write(\'\\n    //--></script>\\n\', escape=False)\nresponse.files.insert(0,URL(\'static\',\'js/jquery.js\'))\nresponse.files.insert(1,URL(\'static\',\'css/calendar.css\'))\nresponse.files.insert(2,URL(\'static\',\'js/calendar.js\'))\nresponse.files.insert(3,URL(\'static\',\'js/web2py.js\'))\nresponse.include_meta()\nresponse.include_files()\nresponse.write(\'\\n\', escape=False)\nresponse.write(\' <!-- this includes jquery.js, calendar.js/.css and web2py.js -->\\n    \', escape=False)\nresponse.write(\'\\n\\n  </head>\\n  <!-- <body background="\', escape=False)\nresponse.write(URL(\'static\',\'images/finalbg.png\'))\nresponse.write(\'" style="background-size: 100%; background-repeat: repeat-y;"> -->\\n  <body>\\n\\n    <!--[if lt IE 8]><p class="browserupgrade">You are using an <strong>outdated</strong> browser. Please <a href="http://browsehappy.com/">upgrade your browser</a> to improve your experience.</p><![endif]-->\\n    <div class="w2p_flash alert alert-dismissable">\', escape=False)\nresponse.write(response.flash or \'\')\nresponse.write(\'</div>\\n    <!-- Preloader -->\\n    <div id="preloader">\\n        <div class="pre-container">\\n            <div class="spinner">\\n                <div class="double-bounce1"></div>\\n                <div class="double-bounce2"></div>\\n            </div>\\n        </div>\\n    </div>\\n    <!-- end Preloader -->\\n\\n    <div class="container-fluid">\\n        <!-- box header -->\\n        <header class="box-header">\\n            <div class="box-logo">\\n                <a href="\', escape=False)\nresponse.write(URL(\'default\', \'index\'))\nresponse.write(\'"><img src="\', escape=False)\nresponse.write(URL(\'static\',\'images/original250px1.png\'))\nresponse.write(\'" alt="Fitters Logo" ></a>\\n                <!-- style="width:5%;" -->\\n                <!-- \', escape=False)\nresponse.write(response.logo or \'\')\nresponse.write(\' -->\\n            </div>\\n            <!-- box-nav -->\\n            <a class="box-primary-nav-trigger" href="#0">\\n                <span class="box-menu-text">Menu</span><span class="box-menu-icon"></span>\\n            </a>\\n            <!-- box-primary-nav-trigger -->\\n        </header>\\n        <!-- end box header -->\\n\\n        <!-- Navbar ======================================= -->\\n        <!-- nav -->\\n\\n        <nav>\\n            <ul class="box-primary-nav">\\n                <li class="box-label">MENU</li>\\n\\n                <li><a href="\', escape=False)\nresponse.write(URL(\'default\', \'index\'))\nresponse.write(\'">Home</a>\\n                  \', escape=False)\nif page == \'home\':\n    response.write(\'\\n                   <i class="ion-ios-circle-filled color"></i>\\n                  \', escape=False)\n    pass\nresponse.write(\'\\n                 </li>\\n                <li><a href="\', escape=False)\nresponse.write(URL(\'default\', \'men\'))\nresponse.write(\'">Men</a>\\n                  \', escape=False)\nif page == \'men\':\n    response.write(\'\\n                   <i class="ion-ios-circle-filled color"></i>\\n                  \', escape=False)\n    pass\nresponse.write(\'\\n                </li>\\n                <li><a href="\', escape=False)\nresponse.write(URL(\'default\', \'women\'))\nresponse.write(\'">Women</a>\\n                  \', escape=False)\nif page == \'women\':\n    response.write(\'\\n                   <i class="ion-ios-circle-filled color"></i>\\n                  \', escape=False)\n    pass\nresponse.write(\'\\n                </li>\\n                <li><a href="\', escape=False)\nresponse.write(URL(\'default\', \'mini\'))\nresponse.write(\'">Mini</a>\\n                  \', escape=False)\nif page == \'mini\':\n    response.write(\'\\n                   <i class="ion-ios-circle-filled color"></i>\\n                  \', escape=False)\n    pass\nresponse.write(\'\\n                </li>\\n                <li><a href="\', escape=False)\nresponse.write(URL(\'default\', \'unstitched\'))\nresponse.write(\'">Unstitched</a>\\n                  \', escape=False)\nif page == \'unstitched\':\n    response.write(\'\\n                   <i class="ion-ios-circle-filled color"></i>\\n                  \', escape=False)\n    pass\nresponse.write(\'\\n                </li>\\n                <li><a href="\', escape=False)\nresponse.write(URL(\'default\', \'accessories\'))\nresponse.write(\'">Accessories</a>\\n                  \', escape=False)\nif page == \'accessories\':\n    response.write(\'\\n                   <i class="ion-ios-circle-filled color"></i>\\n                  \', escape=False)\n    pass\nresponse.write(\'\\n                </li>\\n                <li><a href="\', escape=False)\nresponse.write(URL(\'default\', \'business\'))\nresponse.write(\'">Business / Services</a>\\n                  \', escape=False)\nif page == \'business\':\n    response.write(\'\\n                   <i class="ion-ios-circle-filled color"></i>\\n                  \', escape=False)\n    pass\nresponse.write(\'\\n                </li>\\n                <li><a href="\', escape=False)\nresponse.write(URL(\'default\', \'overseas\'))\nresponse.write(\'">Overseas</a>\\n                  \', escape=False)\nif page == \'overseas\':\n    response.write(\'\\n                   <i class="ion-ios-circle-filled color"></i>\\n                  \', escape=False)\n    pass\nresponse.write(\'\\n                </li>\\n                <li><a href="\', escape=False)\nresponse.write(URL(\'default\', \'prices\'))\nresponse.write(\'">Prices</a>\\n                  \', escape=False)\nif page == \'prices\':\n    response.write(\'\\n                   <i class="ion-ios-circle-filled color"></i>\\n                  \', escape=False)\n    pass\nresponse.write(\'\\n                </li>\\n                <li><a href="\', escape=False)\nresponse.write(URL(\'default\', \'offers\'))\nresponse.write(\'">Offers</a>\\n                  \', escape=False)\nif page == \'offers\':\n    response.write(\'\\n                   <i class="ion-ios-circle-filled color"></i>\\n                  \', escape=False)\n    pass\nresponse.write(\'\\n                </li>\\n                <li><a href="\', escape=False)\nresponse.write(URL(\'default\', \'quickorder\'))\nresponse.write(\'">Quick Order</a>\\n                  \', escape=False)\nif page == \'quickorder\':\n    response.write(\'\\n                   <i class="ion-ios-circle-filled color"></i>\\n                  \', escape=False)\n    pass\nresponse.write(\'\\n                </li>\\n                <li><a href="\', escape=False)\nresponse.write(URL(\'default\', \'videos\'))\nresponse.write(\'">Videos</a>\\n                  \', escape=False)\nif page == \'videos\':\n    response.write(\'\\n                   <i class="ion-ios-circle-filled color"></i>\\n                  \', escape=False)\n    pass\nresponse.write(\'\\n                </li>\\n\\n                <!-- <li class="box-label">Follow us</li>\\n\\n                <li class="box-social"><a href="#0"><i class="ion-social-facebook"></i></a></li>\\n                <li class="box-social"><a href="#0"><i class="ion-social-instagram-outline"></i></a></li>\\n                <li class="box-social"><a href="#0"><i class="ion-social-twitter"></i></a></li>\\n                <li class="box-social"><a href="#0"><i class="ion-social-dribbble"></i></a></li> -->\\n            </ul>\\n        </nav>\\n        <!-- end nav -->\\n    </div>\\n    <!-- Masthead ===================================== -->\\n    \', escape=False)\nresponse.write(\'\\n    \', escape=False)\nresponse.write(\'\\n    <!-- Main ========================================= -->\\n    <!-- Begin page content -->\\n\\n    <!-- <div class="container-fluid" > -->\\n      <!-- style="border: 2px solid blue; " -->\\n      <!-- <div class="" > -->\\n\\n        \', escape=False)\nresponse.write(\'\\n\\n\', escape=False)\n#=msg\nresponse.write(\'\\n\', escape=False)\ni#f yargs == \'men\':\n    response.write(\'\\n\', escape=False)\n    #include \'default/subview1.html\'\n    response.write(\'\\n\', escape=False)\n    #elif yargs == \'women\' :\n    response.write(\'\\n\', escape=False)\n    #include \'default/subview2.html\'\n    response.write(\'\\n\', escape=False)\n    #pass\n    response.write(\'\\n\\n\', escape=False)\n    response.write(\'\\n\\n<!-- top bar -->\\n<div class="top-bar prices-top">\\n    <h1>prices</h1>\\n    <!-- <p><a href="#">Home</a> / Services</p> -->\\n    <!-- <img src="\', escape=False)\n    response.write(URL(\'static\',\'images/business-final2.jpg\'))\n    response.write(\'" alt="Rails" width="100%"> -->\\n</div>\\n<!-- end top bar -->\\n<div class="container main-container">\\n    <div class="clearfix">\\n\\n        <!-- service-box -->\\n        <div class="col-md-4 service-box">\\n            <i class="ion-android-favorite-outline size-50"></i>\\n            <h3>Responsive Design</h3>\\n            <div class="h-10"></div>\\n            <p>Lorem ipsum dolor sit amet, consectetur adipiscing elit. Aliter enim nosmet ipsos nosse non possumus. Inscite autem medicinae </p>\\n        </div>\\n        <!-- end service-box -->\\n\\n        <!-- service-box -->\\n        <div class="col-md-4 service-box">\\n            <i class="ion-android-options size-50"></i>\\n            <h3>Easy Customization</h3>\\n            <div class="h-10"></div>\\n            <p>Lorem ipsum dolor sit amet, consectetur adipiscing elit. Aliter enim nosmet ipsos nosse non possumus. Inscite autem medicinae </p>\\n        </div>\\n        <!-- end service-box -->\\n\\n        <!-- service-box -->\\n        <div class="col-md-4  service-box">\\n            <i class="ion-android-checkmark-circle size-50"></i>\\n            <h3>Creative Design</h3>\\n            <div class="h-10"></div>\\n            <p>Lorem ipsum dolor sit amet, consectetur adipiscing elit. Aliter enim nosmet ipsos nosse non possumus. Inscite autem medicinae </p>\\n        </div>\\n        <!-- end service-box -->\\n\\n        <!-- service-box -->\\n        <div class="col-md-4  service-box">\\n            <i class="ion-ios-pulse-strong size-50"></i>\\n            <h3>user friendly</h3>\\n            <div class="h-10"></div>\\n            <p>Lorem ipsum dolor sit amet, consectetur adipiscing elit. Aliter enim nosmet ipsos nosse non possumus. Inscite autem medicinae </p>\\n        </div>\\n        <!-- end service-box -->\\n\\n        <!-- service-box -->\\n        <div class="col-md-4  service-box">\\n            <i class="ion-earth size-50"></i>\\n            <h3>fully customizible</h3>\\n            <div class="h-10"></div>\\n            <p>Lorem ipsum dolor sit amet, consectetur adipiscing elit. Aliter enim nosmet ipsos nosse non possumus. Inscite autem medicinae </p>\\n        </div>\\n        <!-- end service-box -->\\n\\n        <!-- service-box -->\\n        <div class="col-md-4  service-box">\\n            <i class="ion-speedometer size-50"></i>\\n            <h3>retina ready</h3>\\n            <div class="h-10"></div>\\n            <p>Lorem ipsum dolor sit amet, consectetur adipiscing elit. Aliter enim nosmet ipsos nosse non possumus. Inscite autem medicinae </p>\\n        </div>\\n        <!-- end service-box -->\\n\\n    </div>\\n</div>\\n\', escape=False)\n    response.write(\'\\n\\n      <!-- </div> -->\\n\\n    <!-- </div> -->\\n\\n    \', escape=False)\n    response.write(\' <!-- this is default footer -->\\n    <!-- footer -->\\n    <!-- <footer>\\n        <div class="container-fluid">\\n            <p class="copyright">\', escape=False)\n    response.write(T(\'Copyright\'))\n    response.write(\' &#169; \', escape=False)\n    response.write(request.now.year)\n    response.write(\'</p>\\n        </div>\\n    </footer> -->\\n    <footer id="myFooter">\\n        <div class="container">\\n            <div class="row">\\n                <!-- <div class="col-sm-3">\\n                    <h2 class="logo"><a href="#" onclick="return false"><i class="ion-android-call"></i>.. Call </a></h2>\\n                    <h5 class="logo"><a href="tel:(+92) 3111-222-745"> (+92) 3111-222-745 </a></h2>\\n                </div> -->\\n                <div class="col-sm-2">\\n                    <h5><i class="ion-android-call"></i> Call Us</h5>\\n                    <ul>\\n                        <!-- <li><i class="ion-android-call"></i>.. Call</li> -->\\n                        <li><a href="tel:(+92) 3111-222-745"> (+92) 3111-222-745 </a></li>\\n                    </ul>\\n                    <h5><i class="ion-email"></i> email</h5>\\n                    <ul>\\n                        <!-- <li><i class="ion-android-call"></i>.. Call</li> -->\\n                        <li><a href="mailto:hello@fitters.io"> hello@fitters.io </a></li>\\n                    </ul>\\n                </div>\\n                <div class="col-sm-2">\\n                    <h5>Services</h5>\\n                    <ul>\\n                        <li><a href="\', escape=False)\n    response.write(URL(\'default\', \'quickorder\'))\n    response.write(\'">Quick Order</a></li>\\n                        <li><a href="\', escape=False)\n    response.write(URL(\'default\', \'business\'))\n    response.write(\'">Business / Services</a></li>\\n                        <li><a href="\', escape=False)\n    response.write(URL(\'default\', \'overseas\'))\n    response.write(\'">Overseas</a></li>\\n                        <li><a href="\', escape=False)\n    response.write(URL(\'default\', \'prices\'))\n    response.write(\'">Prices</a></li>\\n                        <li><a href="\', escape=False)\n    response.write(URL(\'default\', \'offers\'))\n    response.write(\'">Offers</a></li>\\n                    </ul>\\n                </div>\\n                <div class="col-sm-2">\\n                    <h5>Overview</h5>\\n                    <ul>\\n                        <li><a href="\', escape=False)\n    response.write(URL(\'default\', \'about\'))\n    response.write(\'">About</a></li>\\n                        <li><a href="\', escape=False)\n    response.write(URL(\'default\', \'videos\'))\n    response.write(\'">Videos</a></li>\\n                        <li><a href="\', escape=False)\n    response.write(URL(\'default\', \'jobs\'))\n    response.write(\'">Jobs</a></li>\\n                        <li><a href="\', escape=False)\n    response.write(URL(\'default\', \'faq\'))\n    response.write(\'">FAQ</a></li>\\n                    </ul>\\n                </div>\\n                <div class="col-sm-2">\\n                    <h5>Leagal</h5>\\n                    <ul>\\n                        <li><a href="\', escape=False)\n    response.write(URL(\'default\', \'terms\'))\n    response.write(\'">Terms</a></li>\\n                        <li><a href="\', escape=False)\n    response.write(URL(\'default\', \'privacy\'))\n    response.write(\'#">Privacy</a></li>\\n                        <li><a href="\', escape=False)\n    response.write(URL(\'default\', \'cancelation\'))\n    response.write(\'">Cancelation</a></li>\\n                    </ul>\\n                </div>\\n                <div class="col-sm-3">\\n                    <div class="social-networks">\\n                        <a href="#" class="twitter"><i class="ion-social-twitter"></i></a>\\n                        <a href="#" class="facebook"><i class="ion-social-facebook"></i></a>\\n                        <a href="#" class="instagram"><i class="ion-social-instagram-outline"></i></a>\\n                        <a href="#" class="instagram"><i class="ion-social-youtube-outline"></i></a>\\n                    </div>\\n                    <!-- <button type="button" class="btn btn-default"> Contact us</button> -->\\n                    <a href="\', escape=False)\n    response.write(URL(\'default\', \'cancelation\'))\n    response.write(\'"><button type="button" class="btn btn-default"> Contact us</button></a>\\n                </div>\\n            </div>\\n        </div>\\n        <div class="footer-copyright">\\n            <p><i class="ion-home"></i> Address </p>\\n            <p>Office FF-121, Divine Mega-II Center, Airport Road, near Bhatta Chowk, D.H.A\\n               Lahore, Pakistan, 54500</p>\\n            <p>\', escape=False)\n    response.write(T(\'Copyright\'))\n    response.write(\' &#169;\', escape=False)\n    response.write(request.now.year)\n    response.write(\' Fitters. All rights reserved.</p>\\n        </div>\\n    </footer>\\n    <!-- end footer -->\\n    \', escape=False)\n    response.write(\'\\n\\n    <!-- back to top -->\\n    <a href="#0" class="cd-top"><i class="ion-android-arrow-up"></i></a>\\n    <!-- end back to top -->\\n\\n\\n    <!-- The javascript =============================== -->\\n    <script src="\', escape=False)\n    response.write(URL(\'static\',\'js/jquery-2.1.1.js\'))\n    response.write(\'"></script>\\n    <script src="\', escape=False)\n    response.write(URL(\'static\',\'js/bootstrap.min.js\'))\n    response.write(\'"></script>\\n    <script src="\', escape=False)\n    response.write(URL(\'static\',\'js/web2py-bootstrap3.js\'))\n    response.write(\'"></script>\\n\\n    <script src="\', escape=False)\n    response.write(URL(\'static\',\'js/menu.js\'))\n    response.write(\'"></script>\\n    <script src="\', escape=False)\n    response.write(URL(\'static\',\'js/animated-headline.js\'))\n    response.write(\'"></script>\\n    <script src="\', escape=False)\n    response.write(URL(\'static\',\'js/isotope.pkgd.min.js\'))\n    response.write(\'"></script>\\n    <!--  custom script -->\\n    <script src="\', escape=False)\n    response.write(URL(\'static\',\'js/custom.js\'))\n    response.write(\'"></script>\\n\\n    <!-- image gallery script -->\\n    <script src="https://cdnjs.cloudflare.com/ajax/libs/baguettebox.js/1.8.1/baguetteBox.min.js"></script>\\n    <script>\\n        baguetteBox.run(\\\'.tz-gallery\\\');\\n    </script>\\n\\n    \', escape=False)\n    response.write(\'\\n    \', escape=False)\n    if response.google_analytics_id:\n        response.write(\'\\n    <!-- Analytics ==================================== -->\\n    <script src="\', escape=False)\n        response.write(URL(\'static\',\'js/analytics.min.js\'))\n        response.write(\'"></script>\\n    <script type="text/javascript">\\n      analytics.initialize({\\n      \\\'Google Analytics\\\':{trackingId:\\\'\', escape=False)\n        response.write(response.google_analytics_id)\n        response.write("\'}\\n      });\\n    </script>\\n    ", escape=False)\n        pass\n    response.write(\'\\n    <!-- Share ============================y============ -->\\n    <!-- <script src="\', escape=False)\n    response.write(URL(\'static\',\'js/share.js\',vars=dict(static=URL(\'static\',\'images\'))))\n    response.write(\'"></script> -->\\n  </body>\\n</html>\\n\', escape=False)'
p7
sS'snapshot'
p8
(dp9
S'exception'
p10
(dp11
S'__module__'
p12
S"'gluon.rocket'"
p13
sS'__getslice__'
p14
S"<method-wrapper '__getslice__' of SocketTimeout object>"
p15
sS'__str__'
p16
S"<method-wrapper '__str__' of SocketTimeout object>"
p17
sS'__reduce__'
p18
S'<built-in method __reduce__ of SocketTimeout object>'
p19
sS'__dict__'
p20
S'{}'
p21
sS'__sizeof__'
p22
S'<built-in method __sizeof__ of SocketTimeout object>'
p23
sS'__weakref__'
p24
S'None'
p25
sS'message'
p26
S"'Socket timed out before request.'"
p27
sS'__init__'
p28
S"<method-wrapper '__init__' of SocketTimeout object>"
p29
sS'__setattr__'
p30
S"<method-wrapper '__setattr__' of SocketTimeout object>"
p31
sS'__reduce_ex__'
p32
S'<built-in method __reduce_ex__ of SocketTimeout object>'
p33
sS'__new__'
p34
S'<built-in method __new__ of type object>'
p35
sS'__format__'
p36
S'<built-in method __format__ of SocketTimeout object>'
p37
sS'__class__'
p38
S"<class 'gluon.rocket.SocketTimeout'>"
p39
sS'__doc__'
p40
S"'Exception for when a socket times out between requests.'"
p41
sS'__getitem__'
p42
S"<method-wrapper '__getitem__' of SocketTimeout object>"
p43
sS'__setstate__'
p44
S'<built-in method __setstate__ of SocketTimeout object>'
p45
sS'__getattribute__'
p46
S"<method-wrapper '__getattribute__' of SocketTimeout object>"
p47
sS'args'
p48
S"('Socket timed out before request.',)"
p49
sS'__subclasshook__'
p50
S'<built-in method __subclasshook__ of type object>'
p51
sS'__unicode__'
p52
S'<built-in method __unicode__ of SocketTimeout object>'
p53
sS'__delattr__'
p54
S"<method-wrapper '__delattr__' of SocketTimeout object>"
p55
sS'__repr__'
p56
S"<method-wrapper '__repr__' of SocketTimeout object>"
p57
sS'__hash__'
p58
S"<method-wrapper '__hash__' of SocketTimeout object>"
p59
ssS'evalue'
p60
S'Socket timed out before request.'
p61
sS'frames'
p62
(lp63
(dp64
S'file'
p65
S'/Users/asad/Documents/workspace/web2py/gluon/rocket.py'
p66
sS'dump'
p67
(dp68
S'self'
p69
S'<WSGIWorker(Thread-10, started daemon 123145434013696)>'
p70
sS'conn'
p71
S'<gluon.rocket.Connection object>'
p72
sS'self.run_app'
p73
S'<bound method WSGIWorker.run_app of <WSGIWorker(Thread-10, started daemon 123145434013696)>>'
p74
ssS'lnum'
p75
I1319
sS'lines'
p76
(dp77
I1314
S'            # Enter connection serve loop'
p78
sI1315
S'            while True:'
p79
sI1316
S'                if __debug__:'
p80
sI1317
S"                    self.err_log.debug('Serving a request')"
p81
sI1318
S'                try:'
p82
sI1319
S'                    self.run_app(conn)'
p83
sI1320
S'                except:'
p84
sI1321
S'                    exc = sys.exc_info()'
p85
sI1322
S'                    handled = self._handleError(*exc)'
p86
sI1323
S'                    if handled:'
p87
ssS'call'
p88
S'(self=<WSGIWorker(Thread-10, started daemon 123145434013696)>)'
p89
sS'func'
p90
S'run'
p91
sa(dp92
g65
S'/Users/asad/Documents/workspace/web2py/gluon/rocket.py'
p93
sg67
(dp94
S'self'
p95
S'<WSGIWorker(Thread-10, started daemon 123145434013696)>'
p96
sS'self.environ'
p97
S"{'HTTP_ACCEPT': 'text/html,application/xhtml+xml,application/xml;q=0.9,*/*;q=0.8', 'HTTP_ACCEPT_ENCODING': 'gzip, deflate', 'HTTP_ACCEPT_LANGUAGE': 'en-US,en;q=0.5', 'HTTP_CONNECTION': 'keep-alive', 'HTTP_COOKIE': 'session_id_welcome=127.0.0.1-472ccdb8-babd-4203-...rs=127.0.0.1-7f8e4e6c-d7b1-4a69-b697-c127605936a5', 'HTTP_HOST': '127.0.0.1:8000', 'HTTP_REFERER': 'http://127.0.0.1:8000/Fitters/default/index', 'HTTP_UPGRADE_INSECURE_REQUESTS': '1', 'HTTP_USER_AGENT': 'Mozilla/5.0 (Macintosh; Intel Mac OS X 10.13; rv:61.0) Gecko/20100101 Firefox/61.0', 'PATH_INFO': '/Fitters/default/prices', ...}"
p98
sS'sock_file'
p99
S'<socket._fileobject object>'
p100
sS'environ'
p101
S'undefined'
p102
sS'self.build_environ'
p103
S'<bound method WSGIWorker.build_environ of <WSGIWorker(Thread-10, started daemon 123145434013696)>>'
p104
sS'conn'
p105
S'<gluon.rocket.Connection object>'
p106
ssg75
I1812
sg76
(dp107
I1807
S'        else:'
p108
sI1808
S'            sock_file = conn.makefile(BUF_SIZE)'
p109
sI1809
S''
sI1810
S'        try:'
p110
sI1811
S'            # Read the headers and build our WSGI environment'
p111
sI1812
S'            self.environ = environ = self.build_environ(sock_file, conn)'
p112
sI1813
S''
sI1814
S'            # Handle 100 Continue'
p113
sI1815
S"            if environ.get('HTTP_EXPECT', '') == '100-continue':"
p114
sI1816
S"                res = environ['SERVER_PROTOCOL'] + ' 100 Continue\\r\\n\\r\\n'"
p115
ssg88
S'(self=<WSGIWorker(Thread-10, started daemon 123145434013696)>, conn=<gluon.rocket.Connection object>)'
p116
sg90
S'run_app'
p117
sa(dp118
g65
S'/Users/asad/Documents/workspace/web2py/gluon/rocket.py'
p119
sg67
(dp120
S'sock_file'
p121
S'<socket._fileobject object>'
p122
sS'self.read_request_line'
p123
S'<bound method WSGIWorker.read_request_line of <W...rker(Thread-10, started daemon 123145434013696)>>'
p124
sS'self'
p125
S'<WSGIWorker(Thread-10, started daemon 123145434013696)>'
p126
sS'request'
p127
g102
ssg75
I1632
sg76
(dp128
I1632
S'        request = self.read_request_line(sock_file)'
p129
sI1633
S''
sI1634
S'        # Copy the Base Environment'
p130
sI1635
S'        environ = self.base_environ.copy()'
p131
sI1636
S''
sI1627
S'                                      "wsgiorg.futures": executor.futures})'
p132
sI1628
S''
sI1629
S'    def build_environ(self, sock_file, conn):'
p133
sI1630
S'        """ Build the execution environment. """'
p134
sI1631
S'        # Grab the request line'
p135
ssg88
S'(self=<WSGIWorker(Thread-10, started daemon 123145434013696)>, sock_file=<socket._fileobject object>, conn=<gluon.rocket.Connection object>)'
p136
sg90
S'build_environ'
p137
sa(dp138
g65
S'/Users/asad/Documents/workspace/web2py/gluon/rocket.py'
p139
sg67
(dp140
S'global SocketTimeout'
p141
S"<class 'gluon.rocket.SocketTimeout'>"
p142
ssg75
I1383
sg76
(dp143
I1378
S''
sI1379
S'                d = sock_file.readline()'
p144
sI1380
S'                if PY3K:'
p145
sI1381
S"                    d = d.decode('ISO-8859-1')"
p146
sI1382
S'        except socket.timeout:'
p147
sI1383
S"            raise SocketTimeout('Socket timed out before request.')"
p148
sI1384
S'        except TypeError:'
p149
sI1385
S'            raise SocketClosed('
p150
sI1386
S"                'SSL bug caused closure of socket.  See '"
p151
sI1387
S'                \'"https://groups.google.com/d/topic/web2py/P_Gw0JxWzCs".\')'
p152
ssg88
S'(self=<WSGIWorker(Thread-10, started daemon 123145434013696)>, sock_file=<socket._fileobject object>)'
p153
sg90
S'read_request_line'
p154
sasS'pyver'
p155
S'Python 2.7.10: /usr/bin/python (prefix: /System/Library/Frameworks/Python.framework/Versions/2.7)'
p156
sS'etype'
p157
S"<class 'gluon.rocket.SocketTimeout'>"
p158
sS'date'
p159
S'Wed Jul 25 20:45:02 2018'
p160
sS'locals'
p161
(dp162
S'sock_file'
p163
S'<socket._fileobject object>'
p164
sS'self'
p165
S'<WSGIWorker(Thread-10, started daemon 123145434013696)>'
p166
sssS'traceback'
p167
S'Traceback (most recent call last):\n  File "/Users/asad/Documents/workspace/web2py/gluon/rocket.py", line 1319, in run\n    self.run_app(conn)\n  File "/Users/asad/Documents/workspace/web2py/gluon/rocket.py", line 1812, in run_app\n    self.environ = environ = self.build_environ(sock_file, conn)\n  File "/Users/asad/Documents/workspace/web2py/gluon/rocket.py", line 1632, in build_environ\n    request = self.read_request_line(sock_file)\n  File "/Users/asad/Documents/workspace/web2py/gluon/rocket.py", line 1383, in read_request_line\n    raise SocketTimeout(\'Socket timed out before request.\')\nSocketTimeout: Socket timed out before request.\n'
p168
s.