(dp1
S'output'
p2
S"<type 'exceptions.SyntaxError'> invalid syntax (<string>, line 65)"
p3
sS'layer'
p4
S'/Users/asad/Documents/workspace/web2py/applications/Fitters/views/default/index.html'
p5
sS'code'
p6
S'response.write(\'<!-- \', escape=False)\nleft_sidebar_enabled,right_sidebar_enabled=False,(\'message\' in globals())\nresponse.write(\' -->\\n\', escape=False)\nresponse.write(\'<!DOCTYPE html>\\n<!--[if (gt IE 9)|!(IE)]><!--> <html class="no-js" lang="\', escape=False)\nresponse.write(T.accepted_language or \'en\')\nresponse.write(\'"> <!--<![endif]-->\\n  <head>\\n    <meta charset="utf-8">\\n    <!-- www.phpied.com/conditional-comments-block-downloads/ -->\\n    <!-- Always force latest IE rendering engine\\n         (even in intranet) & Chrome Frame\\n         Remove this if you use the .htaccess -->\\n    <meta http-equiv="X-UA-Compatible" content="IE=edge\', escape=False)\nresponse.write(not request.is_local and \',chrome=1\' or \'\')\nresponse.write(\'">\\n    <!--  Mobile Viewport Fix\\n          j.mp/mobileviewport & davidbcalhoun.com/2010/viewport-metatag\\n          device-width: Occupy full width of the screen in its current orientation\\n          initial-scale = 1.0 retains dimensions instead of zooming out if page height > device height\\n          user-scalable = yes allows the user to zoom in -->\\n    <meta name="viewport" content="width=device-width, initial-scale=1.0">\\n    <title>\', escape=False)\nresponse.write(response.title or request.application)\nresponse.write(\'</title>\\n    <!-- http://dev.w3.org/html5/markup/meta.name.html -->\\n    <meta name="application-name" content="\', escape=False)\nresponse.write(request.application)\nresponse.write(\'">\\n    <!-- Speaking of Google, don\\\'t forget to set your site up:\\n         http://google.com/webmasters -->\\n    <meta name="google-site-verification" content="">\\n    <!-- include stylesheets -->\\n    <link rel="stylesheet" href="\', escape=False)\nresponse.write(URL(\'static\',\'css/bootstrap.min.css\'))\nresponse.write(\'"/>\\n    <!-- <link rel="stylesheet" href="\', escape=False)\nresponse.write(URL(\'static\',\'css/web2py-bootstrap3.css\'))\nresponse.write(\'"/> -->\\n    <link rel="stylesheet" href="\', escape=False)\nresponse.write(URL(\'static\',\'ionicons/css/ionicons.min.css\'))\nresponse.write(\'">\\n    <!-- main css -->\\n    <link rel="stylesheet" href="\', escape=False)\nresponse.write(URL(\'static\',\'css/style.css\'))\nresponse.write(\'" >\\n    <!-- including fitters styles -->\\n    <!-- <link rel="stylesheet" href="\', escape=False)\nresponse.write(URL(\'static\',\'css/fitters.css\'))\nresponse.write(\'"/> -->\\n    <link rel="shortcut icon" href="\', escape=False)\nresponse.write(URL(\'static\',\'images/favi_red.png\'))\nresponse.write(\'" type="image/x-icon">\\n    <link rel="apple-touch-icon" href="\', escape=False)\nresponse.write(URL(\'static\',\'images/favi_red.png\'))\nresponse.write(\'">\\n    <!-- All JavaScript at the bottom, except for Modernizr which enables\\n         HTML5 elements & feature detects -->\\n    <script src="\', escape=False)\nresponse.write(URL(\'static\',\'js/modernizr-2.8.3.min.js\'))\nresponse.write(\'"></script>\\n    <!-- <script src="\', escape=False)\nresponse.write(URL(\'static\',\'js/modernizr.js\'))\nresponse.write(\'"></script> -->\\n    <!--[if lt IE 9]>\\n        <script src="\', escape=False)\nresponse.write(URL(\'static\',\'js/respond-1.4.2.min.js\'))\nresponse.write(\'"></script>\\n        <![endif]-->\\n    <!-- Favicons -->\\n    \', escape=False)\nresponse.write(\'<script type="text/javascript"><!--\\n    // These variables are used by the web2py_ajax_init function in web2py_ajax.js (which is loaded below).\\n    \', escape=False)\nresponse.write(ASSIGNJS(\nw2p_ajax_confirm_message = T(\'Are you sure you want to delete this object?\'),\nw2p_ajax_disable_with_message = T(\'Working...\'),\nw2p_ajax_date_format = T(\'%Y-%m-%d\'),\nw2p_ajax_datetime_format = T(\'%Y-%m-%d %H:%M:%S\'),\najax_error_500 = T.M(\'An error occured, please [[reload %s]] the page\') % URL(args=request.args, vars=request.get_vars)\n))\nresponse.write(\'\\n    //--></script>\\n\', escape=False)\nresponse.files.insert(0,URL(\'static\',\'js/jquery.js\'))\nresponse.files.insert(1,URL(\'static\',\'css/calendar.css\'))\nresponse.files.insert(2,URL(\'static\',\'js/calendar.js\'))\nresponse.files.insert(3,URL(\'static\',\'js/web2py.js\'))\nresponse.include_meta()\nresponse.include_files()\nresponse.write(\'\\n\', escape=False)\nresponse.write(\' <!-- this includes jquery.js, calendar.js/.css and web2py.js -->\\n    \', escape=False)\nresponse.write(\'\\n\\n  </head>\\n  <!-- <body background="\', escape=False)\nresponse.write(URL(\'static\',\'images/finalbg.png\'))\nresponse.write(\'" style="background-size: 100%; background-repeat: repeat-y;"> -->\\n  <body>\\n\\n    <!--[if lt IE 8]><p class="browserupgrade">You are using an <strong>outdated</strong> browser. Please <a href="http://browsehappy.com/">upgrade your browser</a> to improve your experience.</p><![endif]-->\\n    <div class="w2p_flash alert alert-dismissable">\', escape=False)\nresponse.write(response.flash or \'\')\nresponse.write(\'</div>\\n    <!-- Preloader -->\\n    <div id="preloader">\\n        <div class="pre-container">\\n            <div class="spinner">\\n                <div class="double-bounce1"></div>\\n                <div class="double-bounce2"></div>\\n            </div>\\n        </div>\\n    </div>\\n    <!-- end Preloader -->\\n\\n    <div class="container-fluid">\\n        <!-- box header -->\\n        <header class="box-header">\\n            <div class="box-logo">\\n                <a href="\', escape=False)\nresponse.write(URL(\'default\', \'index\'))\nresponse.write(\'"><img src="\', escape=False)\nresponse.write(URL(\'static\',\'images/new_logo2.png\'))\nresponse.write(\'" alt="Fitters Logo" ></a>\\n                <!-- style="width:5%;" -->\\n                <!-- \', escape=False)\nresponse.write(response.logo or \'\')\nresponse.write(\' -->\\n            </div>\\n            <!-- box-nav -->\\n            <a class="box-primary-nav-trigger" href="#0">\\n                <span class="box-menu-text">Menu</span><span class="box-menu-icon"></span>\\n            </a>\\n            <!-- box-primary-nav-trigger -->\\n        </header>\\n        <!-- end box header -->\\n\\n        <!-- Navbar ======================================= -->\\n        <!-- nav -->\\n        \', escape=False)\nresponse.write(page)\nresponse.write(\'\\n        <nav>\\n            <ul class="box-primary-nav">\\n                <li class="box-label">MENU</li>\\n\\n                <li><a href="\', escape=False)\nresponse.write(URL(\'default\', \'index\'))\nresponse.write(\'">Home</a>\\n                    \', escape=False)\nif page == \'home\'\nresponse.write(\' <i class="ion-ios-circle-filled color"></i>\', escape=False)\npass\nresponse.write(\' </li>\\n                <li><a href="\', escape=False)\nresponse.write(URL(\'default\', \'men\'))\nresponse.write(\'">Men</a></li>\\n                <li><a href="\', escape=False)\nresponse.write(URL(\'default\', \'women\'))\nresponse.write(\'">Women</a></li>\\n                <li><a href="\', escape=False)\nresponse.write(URL(\'default\', \'mini\'))\nresponse.write(\'">Mini</a></li>\\n                <li><a href="\', escape=False)\nresponse.write(URL(\'default\', \'unstitched\'))\nresponse.write(\'">Unstitched</a></li>\\n                <li><a href="\', escape=False)\nresponse.write(URL(\'default\', \'accessories\'))\nresponse.write(\'">Accessories</a></li>\\n                <li><a href="\', escape=False)\nresponse.write(URL(\'default\', \'business\'))\nresponse.write(\'">Business</a></li>\\n                <li><a href="\', escape=False)\nresponse.write(URL(\'default\', \'overseas\'))\nresponse.write(\'">Overseas</a></li>\\n                <li><a href="\', escape=False)\nresponse.write(URL(\'default\', \'prices\'))\nresponse.write(\'">Prices</a></li>\\n                <li><a href="\', escape=False)\nresponse.write(URL(\'default\', \'offers\'))\nresponse.write(\'">Offers</a></li>\\n                <li><a href="\', escape=False)\nresponse.write(URL(\'default\', \'quickorder\'))\nresponse.write(\'">Quick Order</a></li>\\n                <li><a href="\', escape=False)\nresponse.write(URL(\'default\', \'videos\'))\nresponse.write(\'">Videos</a></li>\\n\\n                <!-- <li class="box-label">Follow us</li>\\n\\n                <li class="box-social"><a href="#0"><i class="ion-social-facebook"></i></a></li>\\n                <li class="box-social"><a href="#0"><i class="ion-social-instagram-outline"></i></a></li>\\n                <li class="box-social"><a href="#0"><i class="ion-social-twitter"></i></a></li>\\n                <li class="box-social"><a href="#0"><i class="ion-social-dribbble"></i></a></li> -->\\n            </ul>\\n        </nav>\\n        <!-- end nav -->\\n\\n    <!-- Masthead ===================================== -->\\n    \', escape=False)\nresponse.write(\'\\n    \', escape=False)\nresponse.write(\'\\n    <!-- Main ========================================= -->\\n    <!-- Begin page content -->\\n\\n    <!-- <div class="container-fluid" > -->\\n      <!-- style="border: 2px solid blue; " -->\\n      <!-- <div class="" > -->\\n\\n        \', escape=False)\nresponse.write(\'\\n\\n<!-- box-intro -->\\n<section class="box-intro">\\n    <div class="table-cell">\\n        <h1 class="box-headline letters rotate-2">\\n            <span class="box-words-wrapper">\\n                <b class="is-visible">fitters.</b>\\n                <b>&nbsp;quality.</b>\\n                <b>&nbsp;&nbsp;stitch.</b>\\n            </span>\\n    </h1>\\n        <h5>we stitch to your fit</h5>\\n    </div>\\n\\n    <div class="mouse">\\n        <div class="scroll"></div>\\n    </div>\\n</section>\\n<!-- end box-intro -->\\n</div>\\n\\n<!-- portfolio div -->\\n<div class="portfolio-div">\\n<div class="portfolio">\\n    <div class="no-padding portfolio_container">\\n        <!-- single work -->\\n        <div class="col-md-3 col-sm-6  fashion logo">\\n            <a href="\', escape=False)\nresponse.write(URL(\'default\', \'men\'))\nresponse.write(\'" class="portfolio_item">\\n                <!-- <img src="img/portfolio/01.jpg" alt="image" class="img-responsive" /> -->\\n                <img src="\', escape=False)\nresponse.write(URL(\'static\',\'images/men.jpg\'))\nresponse.write(\'" alt="image" class="img-responsive" />\\n                <div class="portfolio_item_hover">\\n                    <div class="portfolio-border clearfix">\\n                        <div class="item_info">\\n                            <span>Men</span>\\n                            <em>Style / Stitch</em>\\n                        </div>\\n                    </div>\\n                </div>\\n            </a>\\n        </div>\\n        <!-- end single work -->\\n\\n        <!-- single work -->\\n        <div class="col-md-3 col-sm-6 ads graphics">\\n            <a href="\', escape=False)\nresponse.write(URL(\'default\', \'women\'))\nresponse.write(\'" class="portfolio_item">\\n                <img src="\', escape=False)\nresponse.write(URL(\'static\',\'images/women.jpg\'))\nresponse.write(\'" alt="image" class="img-responsive" />\\n                <!-- <img src="img/portfolio/03.jpg" alt="image" class="img-responsive" /> -->\\n                <div class="portfolio_item_hover">\\n                    <div class="portfolio-border clearfix">\\n                        <div class="item_info">\\n                            <span>Women</span>\\n                            <em>Style / Stitch</em>\\n                        </div>\\n                    </div>\\n                </div>\\n            </a>\\n        </div>\\n        <!-- end single work -->\\n\\n        <!-- single work -->\\n        <div class="col-md-6 col-sm-12 photography">\\n            <a href="\', escape=False)\nresponse.write(URL(\'default\', \'unstitched\'))\nresponse.write(\'" class="portfolio_item">\\n                <img src="\', escape=False)\nresponse.write(URL(\'static\',\'images/unstitched.jpg\'))\nresponse.write(\'" alt="image" class="img-responsive" />\\n                <!-- <img src="img/portfolio/02.jpg" alt="image" class="img-responsive" /> -->\\n                <div class="portfolio_item_hover">\\n                    <div class="portfolio-border clearfix">\\n                        <div class="item_info">\\n                            <span>Unstitched Collection</span>\\n                            <em>New / Arrivals </em>\\n                        </div>\\n                    </div>\\n                </div>\\n            </a>\\n        </div>\\n        <!-- end single work -->\\n\\n        <!-- single work -->\\n        <div class="col-md-3 col-sm-6 fashion ads">\\n            <a href="\', escape=False)\nresponse.write(URL(\'default\', \'mini\'))\nresponse.write(\'" class="portfolio_item">\\n                <img src="\', escape=False)\nresponse.write(URL(\'static\',\'images/mini.jpg\'))\nresponse.write(\'" alt="image" class="img-responsive" />\\n                <!-- <img src="img/portfolio/04.jpg" alt="image" class="img-responsive" /> -->\\n                <div class="portfolio_item_hover">\\n                    <div class="portfolio-border clearfix">\\n                        <div class="item_info">\\n                            <span>Mini</span>\\n                            <em>Kids / Stitch</em>\\n                        </div>\\n                    </div>\\n                </div>\\n            </a>\\n        </div>\\n        <!-- end single work -->\\n\\n        <!-- single work -->\\n        <div class="col-md-3 col-sm-6 graphics ads">\\n            <a href="\', escape=False)\nresponse.write(URL(\'default\', \'accessories\'))\nresponse.write(\'" class="portfolio_item">\\n                <img src="\', escape=False)\nresponse.write(URL(\'static\',\'images/portfolio/05.jpg\'))\nresponse.write(\'" alt="image" class="img-responsive" />\\n                <!-- <img src="img/portfolio/05.jpg" alt="image" class="img-responsive" /> -->\\n                <div class="portfolio_item_hover">\\n                    <div class="portfolio-border clearfix">\\n                        <div class="item_info">\\n                            <span>Accessories</span>\\n                            <em>Home / Office / Decore</em>\\n                        </div>\\n                    </div>\\n                </div>\\n            </a>\\n        </div>\\n        <!-- end single work -->\\n\\n        <!-- single work -->\\n        <div class="col-md-6 col-sm-12 photography">\\n            <a href="\', escape=False)\nresponse.write(URL(\'default\', \'about\'))\nresponse.write(\'" class="portfolio_item">\\n                <img src="\', escape=False)\nresponse.write(URL(\'static\',\'images/portfolio/010.jpg\'))\nresponse.write(\'" alt="image" class="img-responsive" />\\n                <!-- <img src="img/portfolio/010.jpg" alt="image" class="img-responsive" /> -->\\n                <div class="portfolio_item_hover">\\n                    <div class="portfolio-border clearfix">\\n                        <div class="item_info">\\n                            <span>About Fitters</span>\\n                            <em>Ideology / Facility</em>\\n                        </div>\\n                    </div>\\n                </div>\\n            </a>\\n        </div>\\n        <!-- end single work -->\\n\\n        <!-- single work -->\\n        <div class="col-md-3 col-sm-6 graphics ads">\\n            <a href="\', escape=False)\nresponse.write(URL(\'default\', \'business\'))\nresponse.write(\'" class="portfolio_item">\\n                <img src="\', escape=False)\nresponse.write(URL(\'static\',\'images/portfolio/06.jpg\'))\nresponse.write(\'" alt="image" class="img-responsive" />\\n                <!-- <img src="img/portfolio/06.jpg" alt="image" class="img-responsive" /> -->\\n                <div class="portfolio_item_hover">\\n                    <div class="portfolio-border clearfix">\\n                        <div class="item_info">\\n                            <span>Business</span>\\n                            <em>Startups / Services</em>\\n                        </div>\\n                    </div>\\n                </div>\\n            </a>\\n        </div>\\n        <!-- end single work -->\\n\\n        <!-- single work -->\\n        <div class="col-md-3 col-sm-6 graphics ads">\\n            <a href="\', escape=False)\nresponse.write(URL(\'default\', \'overseas\'))\nresponse.write(\'" class="portfolio_item">\\n                <img src="\', escape=False)\nresponse.write(URL(\'static\',\'images/testbg1000.png\'))\nresponse.write(\'" alt="image" class="img-responsive" />\\n                <!-- <img src="img/portfolio/07.jpg" alt="image" class="img-responsive" /> -->\\n                <div class="portfolio_item_hover">\\n                    <div class="portfolio-border clearfix">\\n                        <div class="item_info">\\n                            <span>Overseas</span>\\n                            <em>Abroad / Shipments</em>\\n                        </div>\\n                    </div>\\n                </div>\\n            </a>\\n        </div>\\n        <!-- end single work -->\\n\\n        <!-- single work -->\\n        <div class="col-md-3 col-sm-6 graphics ads">\\n            <a href="\', escape=False)\nresponse.write(URL(\'default\', \'prices\'))\nresponse.write(\'" class="portfolio_item">\\n                <img src="\', escape=False)\nresponse.write(URL(\'static\',\'images/prices.jpg\'))\nresponse.write(\'" alt="image" class="img-responsive" />\\n                <!-- <img src="img/portfolio/08.jpg" alt="image" class="img-responsive" /> -->\\n                <div class="portfolio_item_hover">\\n                    <div class="portfolio-border clearfix">\\n                        <div class="item_info">\\n                            <span>Prices</span>\\n                            <em>Charges / Types</em>\\n                        </div>\\n                    </div>\\n                </div>\\n            </a>\\n        </div>\\n        <!-- end single work -->\\n\\n        <!-- single work -->\\n        <div class="col-md-3 col-sm-6 graphics ads">\\n            <a href="offers" class="portfolio_item">\\n                <img src="\', escape=False)\nresponse.write(URL(\'static\',\'images/offers1.png\'))\nresponse.write(\'" alt="image" class="img-responsive" />\\n                <!-- <img src="img/portfolio/09.jpg" alt="image" class="img-responsive" /> -->\\n                <div class="portfolio_item_hover">\\n                    <div class="portfolio-border clearfix">\\n                        <div class="item_info">\\n                            <span>Offers</span>\\n                            <em>Discount / Rebate</em>\\n                        </div>\\n                    </div>\\n                </div>\\n            </a>\\n        </div>\\n        <!-- end single work -->\\n    </div>\\n    <!-- end portfolio_container -->\\n</div>\\n<!-- portfolio -->\\n</div>\\n<!-- end portfolio div -->\\n\', escape=False)\nresponse.write(\'\\n\\n      <!-- </div> -->\\n\\n    <!-- </div> -->\\n\\n    \', escape=False)\nresponse.write(\' <!-- this is default footer -->\\n    <!-- footer -->\\n    <!-- <footer>\\n        <div class="container-fluid">\\n            <p class="copyright">\', escape=False)\nresponse.write(T(\'Copyright\'))\nresponse.write(\' &#169; \', escape=False)\nresponse.write(request.now.year)\nresponse.write(\'</p>\\n        </div>\\n    </footer> -->\\n    <footer id="myFooter">\\n        <div class="container">\\n            <div class="row">\\n                <!-- <div class="col-sm-3">\\n                    <h2 class="logo"><a href="#" onclick="return false"><i class="ion-android-call"></i>.. Call </a></h2>\\n                    <h5 class="logo"><a href="tel:(+92) 3111-222-745"> (+92) 3111-222-745 </a></h2>\\n                </div> -->\\n                <div class="col-sm-2">\\n                    <h5><i class="ion-android-call"></i> Phone</h5>\\n                    <ul>\\n                        <!-- <li><i class="ion-android-call"></i>.. Call</li> -->\\n                        <li><a href="tel:(+92) 3111-222-745"> (+92) 3111-222-745 </a></li>\\n                    </ul>\\n                </div>\\n                <div class="col-sm-2">\\n                    <h5>Services</h5>\\n                    <ul>\\n                        <li><a href="\', escape=False)\nresponse.write(URL(\'default\', \'quickorder\'))\nresponse.write(\'">Quick Order</a></li>\\n                        <li><a href="\', escape=False)\nresponse.write(URL(\'default\', \'business\'))\nresponse.write(\'">Business</a></li>\\n                        <li><a href="\', escape=False)\nresponse.write(URL(\'default\', \'overseas\'))\nresponse.write(\'">Overseas</a></li>\\n                    </ul>\\n                </div>\\n                <div class="col-sm-2">\\n                    <h5>Overview</h5>\\n                    <ul>\\n                        <li><a href="\', escape=False)\nresponse.write(URL(\'default\', \'about\'))\nresponse.write(\'">About</a></li>\\n                        <li><a href="\', escape=False)\nresponse.write(URL(\'default\', \'videos\'))\nresponse.write(\'">Videos</a></li>\\n                        <li><a href="\', escape=False)\nresponse.write(URL(\'default\', \'jobs\'))\nresponse.write(\'">Jobs</a></li>\\n                        <li><a href="\', escape=False)\nresponse.write(URL(\'default\', \'faq\'))\nresponse.write(\'">FAQ</a></li>\\n                    </ul>\\n                </div>\\n                <div class="col-sm-2">\\n                    <h5>Leagal</h5>\\n                    <ul>\\n                        <li><a href="\', escape=False)\nresponse.write(URL(\'default\', \'terms\'))\nresponse.write(\'">Terms</a></li>\\n                        <li><a href="\', escape=False)\nresponse.write(URL(\'default\', \'privacy\'))\nresponse.write(\'#">Privacy</a></li>\\n                        <li><a href="\', escape=False)\nresponse.write(URL(\'default\', \'cancelation\'))\nresponse.write(\'">Cancelation</a></li>\\n                    </ul>\\n                </div>\\n                <div class="col-sm-3">\\n                    <div class="social-networks">\\n                        <a href="#" class="twitter"><i class="ion-social-twitter"></i></a>\\n                        <a href="#" class="facebook"><i class="ion-social-facebook"></i></a>\\n                        <a href="#" class="instagram"><i class="ion-social-instagram-outline"></i></a>\\n                    </div>\\n                    <!-- <button type="button" class="btn btn-default"> Contact us</button> -->\\n                    <a href="\', escape=False)\nresponse.write(URL(\'default\', \'cancelation\'))\nresponse.write(\'"><button type="button" class="btn btn-default"> Contact us</button></a>\\n                </div>\\n            </div>\\n        </div>\\n        <div class="footer-copyright">\\n            <p><i class="ion-home"></i> Address </p>\\n            <p>Office FF-121, Divine Mega-II Center, Airport Road, near Bhatta Chowk, D.H.A\\n               Lahore, Pakistan, 54500</p>\\n            <p>\', escape=False)\nresponse.write(T(\'Copyright\'))\nresponse.write(\' &#169;\', escape=False)\nresponse.write(request.now.year)\nresponse.write(\' Fitters. All rights reserved.</p>\\n        </div>\\n    </footer>\\n    <!-- end footer -->\\n    \', escape=False)\nresponse.write(\'\\n\\n    <!-- back to top -->\\n    <a href="#0" class="cd-top"><i class="ion-android-arrow-up"></i></a>\\n    <!-- end back to top -->\\n\\n\\n    <!-- The javascript =============================== -->\\n    <script src="\', escape=False)\nresponse.write(URL(\'static\',\'js/jquery-2.1.1.js\'))\nresponse.write(\'"></script>\\n    <script src="\', escape=False)\nresponse.write(URL(\'static\',\'js/bootstrap.min.js\'))\nresponse.write(\'"></script>\\n    <script src="\', escape=False)\nresponse.write(URL(\'static\',\'js/web2py-bootstrap3.js\'))\nresponse.write(\'"></script>\\n\\n    <script src="\', escape=False)\nresponse.write(URL(\'static\',\'js/menu.js\'))\nresponse.write(\'"></script>\\n    <script src="\', escape=False)\nresponse.write(URL(\'static\',\'js/animated-headline.js\'))\nresponse.write(\'"></script>\\n    <script src="\', escape=False)\nresponse.write(URL(\'static\',\'js/isotope.pkgd.min.js\'))\nresponse.write(\'"></script>\\n    <!--  custom script -->\\n    <script src="\', escape=False)\nresponse.write(URL(\'static\',\'js/custom.js\'))\nresponse.write(\'"></script>\\n\\n    \', escape=False)\nresponse.write(\'\\n    \', escape=False)\nif response.google_analytics_id:\n    response.write(\'\\n    <!-- Analytics ==================================== -->\\n    <script src="\', escape=False)\n    response.write(URL(\'static\',\'js/analytics.min.js\'))\n    response.write(\'"></script>\\n    <script type="text/javascript">\\n      analytics.initialize({\\n      \\\'Google Analytics\\\':{trackingId:\\\'\', escape=False)\n    response.write(response.google_analytics_id)\n    response.write("\'}\\n      });\\n    </script>\\n    ", escape=False)\n    pass\nresponse.write(\'\\n    <!-- Share ============================y============ -->\\n    <!-- <script src="\', escape=False)\nresponse.write(URL(\'static\',\'js/share.js\',vars=dict(static=URL(\'static\',\'images\'))))\nresponse.write(\'"></script> -->\\n  </body>\\n</html>\\n\', escape=False)'
p7
sS'snapshot'
p8
(dp9
S'exception'
p10
(dp11
S'__getslice__'
p12
S"<method-wrapper '__getslice__' of exceptions.SyntaxError object>"
p13
sS'text'
p14
S'"if page == \'home\'\\n"'
p15
sS'__str__'
p16
S"<method-wrapper '__str__' of exceptions.SyntaxError object>"
p17
sS'__reduce__'
p18
S'<built-in method __reduce__ of exceptions.SyntaxError object>'
p19
sS'__dict__'
p20
S'{}'
p21
sS'__sizeof__'
p22
S'<built-in method __sizeof__ of exceptions.SyntaxError object>'
p23
sS'message'
p24
S"''"
p25
sS'__init__'
p26
S"<method-wrapper '__init__' of exceptions.SyntaxError object>"
p27
sS'__setattr__'
p28
S"<method-wrapper '__setattr__' of exceptions.SyntaxError object>"
p29
sS'__reduce_ex__'
p30
S'<built-in method __reduce_ex__ of exceptions.SyntaxError object>'
p31
sS'__new__'
p32
S'<built-in method __new__ of type object>'
p33
sS'__format__'
p34
S'<built-in method __format__ of exceptions.SyntaxError object>'
p35
sS'__class__'
p36
S"<type 'exceptions.SyntaxError'>"
p37
sS'filename'
p38
S"'<string>'"
p39
sS'lineno'
p40
S'65'
p41
sS'msg'
p42
S"'invalid syntax'"
p43
sS'__doc__'
p44
S"'Invalid syntax.'"
p45
sS'__getitem__'
p46
S"<method-wrapper '__getitem__' of exceptions.SyntaxError object>"
p47
sS'__setstate__'
p48
S'<built-in method __setstate__ of exceptions.SyntaxError object>'
p49
sS'__getattribute__'
p50
S"<method-wrapper '__getattribute__' of exceptions.SyntaxError object>"
p51
sS'print_file_and_line'
p52
S'None'
p53
sS'args'
p54
S'(\'invalid syntax\', (\'<string>\', 65, 18, "if page == \'home\'\\n"))'
p55
sS'__subclasshook__'
p56
S'<built-in method __subclasshook__ of type object>'
p57
sS'offset'
p58
S'18'
p59
sS'__unicode__'
p60
S'<built-in method __unicode__ of exceptions.SyntaxError object>'
p61
sS'__delattr__'
p62
S"<method-wrapper '__delattr__' of exceptions.SyntaxError object>"
p63
sS'__repr__'
p64
S"<method-wrapper '__repr__' of exceptions.SyntaxError object>"
p65
sS'__hash__'
p66
S"<method-wrapper '__hash__' of exceptions.SyntaxError object>"
p67
ssS'evalue'
p68
S'invalid syntax (<string>, line 65)'
p69
sS'request'
p70
cgluon.html
XML_unpickle
p71
(S's\xefc\x00\x00<div><table><tr><td style="font-weight:bold;vertical-align:top;">ajax</td><td style="vertical-align:top;">:</td><td><div>False</div></td></tr><tr><td style="font-weight:bold;vertical-align:top;">application</td><td style="vertical-align:top;">:</td><td><div>Fitters</div></td></tr><tr><td style="font-weight:bold;vertical-align:top;">args</td><td style="vertical-align:top;">:</td><td><div><table></table></div></td></tr><tr><td style="font-weight:bold;vertical-align:top;">cid</td><td style="vertical-align:top;">:</td><td><div>None</div></td></tr><tr><td style="font-weight:bold;vertical-align:top;">client</td><td style="vertical-align:top;">:</td><td><div>127.0.0.1</div></td></tr><tr><td style="font-weight:bold;vertical-align:top;">controller</td><td style="vertical-align:top;">:</td><td><div>default</div></td></tr><tr><td style="font-weight:bold;vertical-align:top;">cookies</td><td style="vertical-align:top;">:</td><td><div><table><tr><td style="font-weight:bold;vertical-align:top;">session_id_admin</td><td style="vertical-align:top;">:</td><td><div>127.0.0.1-116b6d37-5d7f-4ce9-b491-ff442f8fd5c1<table><tr><td style="font-weight:bold;vertical-align:top;">comment</td><td style="vertical-align:top;">:</td><td><div></div></td></tr><tr><td style="font-weight:bold;vertical-align:top;">domain</td><td style="vertical-align:top;">:</td><td><div></div></td></tr><tr><td style="font-weight:bold;vertical-align:top;">expires</td><td style="vertical-align:top;">:</td><td><div></div></td></tr><tr><td style="font-weight:bold;vertical-align:top;">httponly</td><td style="vertical-align:top;">:</td><td><div></div></td></tr><tr><td style="font-weight:bold;vertical-align:top;">max-age</td><td style="vertical-align:top;">:</td><td><div></div></td></tr><tr><td style="font-weight:bold;vertical-align:top;">path</td><td style="vertical-align:top;">:</td><td><div></div></td></tr><tr><td style="font-weight:bold;vertical-align:top;">secure</td><td style="vertical-align:top;">:</td><td><div></div></td></tr><tr><td style="font-weight:bold;vertical-align:top;">version</td><td style="vertical-align:top;">:</td><td><div></div></td></tr></table></div></td></tr><tr><td style="font-weight:bold;vertical-align:top;">session_id_fitters</td><td style="vertical-align:top;">:</td><td><div>127.0.0.1-7f8e4e6c-d7b1-4a69-b697-c127605936a5<table><tr><td style="font-weight:bold;vertical-align:top;">comment</td><td style="vertical-align:top;">:</td><td><div></div></td></tr><tr><td style="font-weight:bold;vertical-align:top;">domain</td><td style="vertical-align:top;">:</td><td><div></div></td></tr><tr><td style="font-weight:bold;vertical-align:top;">expires</td><td style="vertical-align:top;">:</td><td><div></div></td></tr><tr><td style="font-weight:bold;vertical-align:top;">httponly</td><td style="vertical-align:top;">:</td><td><div></div></td></tr><tr><td style="font-weight:bold;vertical-align:top;">max-age</td><td style="vertical-align:top;">:</td><td><div></div></td></tr><tr><td style="font-weight:bold;vertical-align:top;">path</td><td style="vertical-align:top;">:</td><td><div></div></td></tr><tr><td style="font-weight:bold;vertical-align:top;">secure</td><td style="vertical-align:top;">:</td><td><div></div></td></tr><tr><td style="font-weight:bold;vertical-align:top;">version</td><td style="vertical-align:top;">:</td><td><div></div></td></tr></table></div></td></tr><tr><td style="font-weight:bold;vertical-align:top;">session_id_test</td><td style="vertical-align:top;">:</td><td><div>127.0.0.1-eca21740-9b8f-41e1-9f11-7a864c00e307<table><tr><td style="font-weight:bold;vertical-align:top;">comment</td><td style="vertical-align:top;">:</td><td><div></div></td></tr><tr><td style="font-weight:bold;vertical-align:top;">domain</td><td style="vertical-align:top;">:</td><td><div></div></td></tr><tr><td style="font-weight:bold;vertical-align:top;">expires</td><td style="vertical-align:top;">:</td><td><div></div></td></tr><tr><td style="font-weight:bold;vertical-align:top;">httponly</td><td style="vertical-align:top;">:</td><td><div></div></td></tr><tr><td style="font-weight:bold;vertical-align:top;">max-age</td><td style="vertical-align:top;">:</td><td><div></div></td></tr><tr><td style="font-weight:bold;vertical-align:top;">path</td><td style="vertical-align:top;">:</td><td><div></div></td></tr><tr><td style="font-weight:bold;vertical-align:top;">secure</td><td style="vertical-align:top;">:</td><td><div></div></td></tr><tr><td style="font-weight:bold;vertical-align:top;">version</td><td style="vertical-align:top;">:</td><td><div></div></td></tr></table></div></td></tr><tr><td style="font-weight:bold;vertical-align:top;">session_id_welcome</td><td style="vertical-align:top;">:</td><td><div>127.0.0.1-472ccdb8-babd-4203-8f09-c6e3fd86abd8<table><tr><td style="font-weight:bold;vertical-align:top;">comment</td><td style="vertical-align:top;">:</td><td><div></div></td></tr><tr><td style="font-weight:bold;vertical-align:top;">domain</td><td style="vertical-align:top;">:</td><td><div></div></td></tr><tr><td style="font-weight:bold;vertical-align:top;">expires</td><td style="vertical-align:top;">:</td><td><div></div></td></tr><tr><td style="font-weight:bold;vertical-align:top;">httponly</td><td style="vertical-align:top;">:</td><td><div></div></td></tr><tr><td style="font-weight:bold;vertical-align:top;">max-age</td><td style="vertical-align:top;">:</td><td><div></div></td></tr><tr><td style="font-weight:bold;vertical-align:top;">path</td><td style="vertical-align:top;">:</td><td><div></div></td></tr><tr><td style="font-weight:bold;vertical-align:top;">secure</td><td style="vertical-align:top;">:</td><td><div></div></td></tr><tr><td style="font-weight:bold;vertical-align:top;">version</td><td style="vertical-align:top;">:</td><td><div></div></td></tr></table></div></td></tr></table></div></td></tr><tr><td style="font-weight:bold;vertical-align:top;">env</td><td style="vertical-align:top;">:</td><td><div><table><tr><td style="font-weight:bold;vertical-align:top;">HTTP_ACCEPT</td><td style="vertical-align:top;">:</td><td><div>text/html,application/xhtml+xml,application/xml;q=0.9,*/*;q=0.8</div></td></tr><tr><td style="font-weight:bold;vertical-align:top;">HTTP_ACCEPT_ENCODING</td><td style="vertical-align:top;">:</td><td><div>gzip, deflate</div></td></tr><tr><td style="font-weight:bold;vertical-align:top;">HTTP_ACCEPT_LANGUAGE</td><td style="vertical-align:top;">:</td><td><div>en-US,en;q=0.5</div></td></tr><tr><td style="font-weight:bold;vertical-align:top;">HTTP_CACHE_CONTROL</td><td style="vertical-align:top;">:</td><td><div>max-age=0</div></td></tr><tr><td style="font-weight:bold;vertical-align:top;">HTTP_CONNECTION</td><td style="vertical-align:top;">:</td><td><div>keep-alive</div></td></tr><tr><td style="font-weight:bold;vertical-align:top;">HTTP_COOKIE</td><td style="vertical-align:top;">:</td><td><div>session_id_welcome=127.0.0.1-472ccdb8-babd-4203-8f09-c6e3fd86abd8; session_id_admin=127.0.0.1-116b6d37-5d7f-4ce9-b491-ff442f8fd5c1; session_id_test=127.0.0.1-eca21740-9b8f-41e1-9f11-7a864c00e307; session_id_fitters=127.0.0.1-7f8e4e6c-d7b1-4a69-b697-c127605936a5</div></td></tr><tr><td style="font-weight:bold;vertical-align:top;">HTTP_HOST</td><td style="vertical-align:top;">:</td><td><div>127.0.0.1:8000</div></td></tr><tr><td style="font-weight:bold;vertical-align:top;">HTTP_REFERER</td><td style="vertical-align:top;">:</td><td><div>http://127.0.0.1:8000/Fitters/default/videos</div></td></tr><tr><td style="font-weight:bold;vertical-align:top;">HTTP_UPGRADE_INSECURE_REQUESTS</td><td style="vertical-align:top;">:</td><td><div>1</div></td></tr><tr><td style="font-weight:bold;vertical-align:top;">HTTP_USER_AGENT</td><td style="vertical-align:top;">:</td><td><div>Mozilla/5.0 (Macintosh; Intel Mac OS X 10.13; rv:61.0) Gecko/20100101 Firefox/61.0</div></td></tr><tr><td style="font-weight:bold;vertical-align:top;">PATH_INFO</td><td style="vertical-align:top;">:</td><td><div>/Fitters/default/index</div></td></tr><tr><td style="font-weight:bold;vertical-align:top;">QUERY_STRING</td><td style="vertical-align:top;">:</td><td><div></div></td></tr><tr><td style="font-weight:bold;vertical-align:top;">REMOTE_ADDR</td><td style="vertical-align:top;">:</td><td><div>127.0.0.1</div></td></tr><tr><td style="font-weight:bold;vertical-align:top;">REMOTE_PORT</td><td style="vertical-align:top;">:</td><td><div>65047</div></td></tr><tr><td style="font-weight:bold;vertical-align:top;">REQUEST_METHOD</td><td style="vertical-align:top;">:</td><td><div>GET</div></td></tr><tr><td style="font-weight:bold;vertical-align:top;">SCRIPT_NAME</td><td style="vertical-align:top;">:</td><td><div></div></td></tr><tr><td style="font-weight:bold;vertical-align:top;">SERVER_NAME</td><td style="vertical-align:top;">:</td><td><div>Asads-MacBook-Pro.local</div></td></tr><tr><td style="font-weight:bold;vertical-align:top;">SERVER_PORT</td><td style="vertical-align:top;">:</td><td><div>8000</div></td></tr><tr><td style="font-weight:bold;vertical-align:top;">SERVER_PROTOCOL</td><td style="vertical-align:top;">:</td><td><div>HTTP/1.1</div></td></tr><tr><td style="font-weight:bold;vertical-align:top;">SERVER_SOFTWARE</td><td style="vertical-align:top;">:</td><td><div>Rocket 1.2.6</div></td></tr><tr><td style="font-weight:bold;vertical-align:top;">app_folders</td><td style="vertical-align:top;">:</td><td><div>set([&#x27;/Users/asad/Documents/workspace/web2py/applications/Fitters/&#x27;, &#x27;/Users/asad/Documents/workspace/web2py/applications/welcome/&#x27;, &#x27;/Users/asad/Documents/workspace/web2py/applications/admin/&#x27;])</div></td></tr><tr><td style="font-weight:bold;vertical-align:top;">applications_parent</td><td style="vertical-align:top;">:</td><td><div>/Users/asad/Documents/workspace/web2py</div></td></tr><tr><td style="font-weight:bold;vertical-align:top;">cmd_args</td><td style="vertical-align:top;">:</td><td><div><table></table></div></td></tr><tr><td style="font-weight:bold;vertical-align:top;">cmd_options</td><td style="vertical-align:top;">:</td><td><div>&lt;Values at 0x10a0503f8: {&#x27;verbose&#x27;: False, &#x27;ip&#x27;: &#x27;127.0.0.1&#x27;, &#x27;debuglevel&#x27;: 30, &#x27;with_scheduler&#x27;: False, &#x27;shutdown_timeout&#x27;: 5, &#x27;taskbar&#x27;: False, &#x27;with_coverage&#x27;: False, &#x27;pid_filename&#x27;: &#x27;httpserver.pid&#x27;, &#x27;maxthreads&#x27;: None, &#x27;softcron&#x27;: False, &#x27;server_name&#x27;: &#x27;Asads-MacBook-Pro.local&#x27;, &#x27;bpython&#x27;: False, &#x27;nogui&#x27;: False, &#x27;port&#x27;: 8000, &#x27;print_errors&#x27;: False, &#x27;extcron&#x27;: False, &#x27;runcron&#x27;: False, &#x27;run_system_tests&#x27;: False, &#x27;test&#x27;: None, &#x27;folder&#x27;: &#x27;/Users/asad/Documents/workspace/web2py&#x27;, &#x27;config&#x27;: &#x27;&#x27;, &#x27;minthreads&#x27;: None, &#x27;shell&#x27;: None, &#x27;run&#x27;: &#x27;&#x27;, &#x27;log_filename&#x27;: &#x27;httpserver.log&#x27;, &#x27;profiler_dir&#x27;: None, &#x27;args&#x27;: [&#x27;&#x27;], &#x27;socket_timeout&#x27;: 5, &#x27;ssl_ca_certificate&#x27;: None, &#x27;scheduler&#x27;: None, &#x27;interfaces&#x27;: None, &#x27;ssl_private_key&#x27;: &#x27;&#x27;, &#x27;gae&#x27;: None, &#x27;password&#x27;: &#x27;******&#x27;, &#x27;request_queue_size&#x27;: 5, &#x27;ssl_certificate&#x27;: &#x27;&#x27;, &#x27;cronjob&#x27;: False, &#x27;numthreads&#x27;: None, &#x27;quiet&#x27;: False, &#x27;import_models&#x27;: False, &#x27;timeout&#x27;: 10, &#x27;plain&#x27;: False, &#x27;nobanner&#x27;: False}&gt;</div></td></tr><tr><td style="font-weight:bold;vertical-align:top;">db_sessions</td><td style="vertical-align:top;">:</td><td><div>set([])</div></td></tr><tr><td style="font-weight:bold;vertical-align:top;">debugging</td><td style="vertical-align:top;">:</td><td><div>False</div></td></tr><tr><td style="font-weight:bold;vertical-align:top;">gluon_parent</td><td style="vertical-align:top;">:</td><td><div>/Users/asad/Documents/workspace/web2py</div></td></tr><tr><td style="font-weight:bold;vertical-align:top;">http_accept</td><td style="vertical-align:top;">:</td><td><div>text/html,application/xhtml+xml,application/xml;q=0.9,*/*;q=0.8</div></td></tr><tr><td style="font-weight:bold;vertical-align:top;">http_accept_encoding</td><td style="vertical-align:top;">:</td><td><div>gzip, deflate</div></td></tr><tr><td style="font-weight:bold;vertical-align:top;">http_accept_language</td><td style="vertical-align:top;">:</td><td><div>en-US,en;q=0.5</div></td></tr><tr><td style="font-weight:bold;vertical-align:top;">http_cache_control</td><td style="vertical-align:top;">:</td><td><div>max-age=0</div></td></tr><tr><td style="font-weight:bold;vertical-align:top;">http_connection</td><td style="vertical-align:top;">:</td><td><div>keep-alive</div></td></tr><tr><td style="font-weight:bold;vertical-align:top;">http_cookie</td><td style="vertical-align:top;">:</td><td><div>session_id_welcome=127.0.0.1-472ccdb8-babd-4203-8f09-c6e3fd86abd8; session_id_admin=127.0.0.1-116b6d37-5d7f-4ce9-b491-ff442f8fd5c1; session_id_test=127.0.0.1-eca21740-9b8f-41e1-9f11-7a864c00e307; session_id_fitters=127.0.0.1-7f8e4e6c-d7b1-4a69-b697-c127605936a5</div></td></tr><tr><td style="font-weight:bold;vertical-align:top;">http_host</td><td style="vertical-align:top;">:</td><td><div>127.0.0.1:8000</div></td></tr><tr><td style="font-weight:bold;vertical-align:top;">http_referer</td><td style="vertical-align:top;">:</td><td><div>http://127.0.0.1:8000/Fitters/default/videos</div></td></tr><tr><td style="font-weight:bold;vertical-align:top;">http_upgrade_insecure_requests</td><td style="vertical-align:top;">:</td><td><div>1</div></td></tr><tr><td style="font-weight:bold;vertical-align:top;">http_user_agent</td><td style="vertical-align:top;">:</td><td><div>Mozilla/5.0 (Macintosh; Intel Mac OS X 10.13; rv:61.0) Gecko/20100101 Firefox/61.0</div></td></tr><tr><td style="font-weight:bold;vertical-align:top;">is_jython</td><td style="vertical-align:top;">:</td><td><div>False</div></td></tr><tr><td style="font-weight:bold;vertical-align:top;">is_py2</td><td style="vertical-align:top;">:</td><td><div>True</div></td></tr><tr><td style="font-weight:bold;vertical-align:top;">is_pypy</td><td style="vertical-align:top;">:</td><td><div>False</div></td></tr><tr><td style="font-weight:bold;vertical-align:top;">is_source</td><td style="vertical-align:top;">:</td><td><div>True</div></td></tr><tr><td style="font-weight:bold;vertical-align:top;">local_hosts</td><td style="vertical-align:top;">:</td><td><div><table><tr><td><div>fe80::14c2:5914:1595:17fd%en0</div></td></tr><tr><td><div>::ffff:127.0.0.1</div></td></tr><tr><td><div>::1</div></td></tr><tr><td><div>1.0.0.127.in-addr.arpa</div></td></tr><tr><td><div>127.0.0.1</div></td></tr><tr><td><div>Asads-MacBook-Pro.local</div></td></tr></table></div></td></tr><tr><td style="font-weight:bold;vertical-align:top;">path_info</td><td style="vertical-align:top;">:</td><td><div>/Fitters/default/index</div></td></tr><tr><td style="font-weight:bold;vertical-align:top;">query_string</td><td style="vertical-align:top;">:</td><td><div></div></td></tr><tr><td style="font-weight:bold;vertical-align:top;">remote_addr</td><td style="vertical-align:top;">:</td><td><div>127.0.0.1</div></td></tr><tr><td style="font-weight:bold;vertical-align:top;">remote_port</td><td style="vertical-align:top;">:</td><td><div>65047</div></td></tr><tr><td style="font-weight:bold;vertical-align:top;">request_method</td><td style="vertical-align:top;">:</td><td><div>GET</div></td></tr><tr><td style="font-weight:bold;vertical-align:top;">request_uri</td><td style="vertical-align:top;">:</td><td><div>/Fitters/default/index</div></td></tr><tr><td style="font-weight:bold;vertical-align:top;">script_name</td><td style="vertical-align:top;">:</td><td><div></div></td></tr><tr><td style="font-weight:bold;vertical-align:top;">server_name</td><td style="vertical-align:top;">:</td><td><div>Asads-MacBook-Pro.local</div></td></tr><tr><td style="font-weight:bold;vertical-align:top;">server_port</td><td style="vertical-align:top;">:</td><td><div>8000</div></td></tr><tr><td style="font-weight:bold;vertical-align:top;">server_protocol</td><td style="vertical-align:top;">:</td><td><div>HTTP/1.1</div></td></tr><tr><td style="font-weight:bold;vertical-align:top;">server_software</td><td style="vertical-align:top;">:</td><td><div>Rocket 1.2.6</div></td></tr><tr><td style="font-weight:bold;vertical-align:top;">web2py_path</td><td style="vertical-align:top;">:</td><td><div>/Users/asad/Documents/workspace/web2py</div></td></tr><tr><td style="font-weight:bold;vertical-align:top;">web2py_version</td><td style="vertical-align:top;">:</td><td><div>2.15.2-stable+timestamp.2017.07.19.12.18.41</div></td></tr><tr><td style="font-weight:bold;vertical-align:top;">wsgi.errors</td><td style="vertical-align:top;">:</td><td><div>&lt;open file &#x27;&lt;stderr&gt;&#x27;, mode &#x27;w&#x27; at 0x1082511e0&gt;</div></td></tr><tr><td style="font-weight:bold;vertical-align:top;">wsgi.file_wrapper</td><td style="vertical-align:top;">:</td><td><div>&lt;class wsgiref.util.FileWrapper at 0x10a019328&gt;</div></td></tr><tr><td style="font-weight:bold;vertical-align:top;">wsgi.input</td><td style="vertical-align:top;">:</td><td><div>&lt;socket._fileobject object at 0x110329850&gt;</div></td></tr><tr><td style="font-weight:bold;vertical-align:top;">wsgi.multiprocess</td><td style="vertical-align:top;">:</td><td><div>False</div></td></tr><tr><td style="font-weight:bold;vertical-align:top;">wsgi.multithread</td><td style="vertical-align:top;">:</td><td><div>True</div></td></tr><tr><td style="font-weight:bold;vertical-align:top;">wsgi.run_once</td><td style="vertical-align:top;">:</td><td><div>False</div></td></tr><tr><td style="font-weight:bold;vertical-align:top;">wsgi.url_scheme</td><td style="vertical-align:top;">:</td><td><div>http</div></td></tr><tr><td style="font-weight:bold;vertical-align:top;">wsgi.version</td><td style="vertical-align:top;">:</td><td><div><table><tr><td><div>1</div></td></tr><tr><td><div>0</div></td></tr></table></div></td></tr><tr><td style="font-weight:bold;vertical-align:top;">wsgi_errors</td><td style="vertical-align:top;">:</td><td><div>&lt;open file &#x27;&lt;stderr&gt;&#x27;, mode &#x27;w&#x27; at 0x1082511e0&gt;</div></td></tr><tr><td style="font-weight:bold;vertical-align:top;">wsgi_file_wrapper</td><td style="vertical-align:top;">:</td><td><div>&lt;class wsgiref.util.FileWrapper at 0x10a019328&gt;</div></td></tr><tr><td style="font-weight:bold;vertical-align:top;">wsgi_input</td><td style="vertical-align:top;">:</td><td><div>&lt;socket._fileobject object at 0x110329850&gt;</div></td></tr><tr><td style="font-weight:bold;vertical-align:top;">wsgi_multiprocess</td><td style="vertical-align:top;">:</td><td><div>False</div></td></tr><tr><td style="font-weight:bold;vertical-align:top;">wsgi_multithread</td><td style="vertical-align:top;">:</td><td><div>True</div></td></tr><tr><td style="font-weight:bold;vertical-align:top;">wsgi_run_once</td><td style="vertical-align:top;">:</td><td><div>False</div></td></tr><tr><td style="font-weight:bold;vertical-align:top;">wsgi_url_scheme</td><td style="vertical-align:top;">:</td><td><div>http</div></td></tr><tr><td style="font-weight:bold;vertical-align:top;">wsgi_version</td><td style="vertical-align:top;">:</td><td><div><table><tr><td><div>1</div></td></tr><tr><td><div>0</div></td></tr></table></div></td></tr></table></div></td></tr><tr><td style="font-weight:bold;vertical-align:top;">extension</td><td style="vertical-align:top;">:</td><td><div>html</div></td></tr><tr><td style="font-weight:bold;vertical-align:top;">folder</td><td style="vertical-align:top;">:</td><td><div>/Users/asad/Documents/workspace/web2py/applications/Fitters/</div></td></tr><tr><td style="font-weight:bold;vertical-align:top;">function</td><td style="vertical-align:top;">:</td><td><div>index</div></td></tr><tr><td style="font-weight:bold;vertical-align:top;">global_settings</td><td style="vertical-align:top;">:</td><td><div><table><tr><td style="font-weight:bold;vertical-align:top;">app_folders</td><td style="vertical-align:top;">:</td><td><div>set([&#x27;/Users/asad/Documents/workspace/web2py/applications/Fitters/&#x27;, &#x27;/Users/asad/Documents/workspace/web2py/applications/welcome/&#x27;, &#x27;/Users/asad/Documents/workspace/web2py/applications/admin/&#x27;])</div></td></tr><tr><td style="font-weight:bold;vertical-align:top;">applications_parent</td><td style="vertical-align:top;">:</td><td><div>/Users/asad/Documents/workspace/web2py</div></td></tr><tr><td style="font-weight:bold;vertical-align:top;">cmd_args</td><td style="vertical-align:top;">:</td><td><div><table></table></div></td></tr><tr><td style="font-weight:bold;vertical-align:top;">cmd_options</td><td style="vertical-align:top;">:</td><td><div>&lt;Values at 0x10a0503f8: {&#x27;verbose&#x27;: False, &#x27;ip&#x27;: &#x27;127.0.0.1&#x27;, &#x27;debuglevel&#x27;: 30, &#x27;with_scheduler&#x27;: False, &#x27;shutdown_timeout&#x27;: 5, &#x27;taskbar&#x27;: False, &#x27;with_coverage&#x27;: False, &#x27;pid_filename&#x27;: &#x27;httpserver.pid&#x27;, &#x27;maxthreads&#x27;: None, &#x27;softcron&#x27;: False, &#x27;server_name&#x27;: &#x27;Asads-MacBook-Pro.local&#x27;, &#x27;bpython&#x27;: False, &#x27;nogui&#x27;: False, &#x27;port&#x27;: 8000, &#x27;print_errors&#x27;: False, &#x27;extcron&#x27;: False, &#x27;runcron&#x27;: False, &#x27;run_system_tests&#x27;: False, &#x27;test&#x27;: None, &#x27;folder&#x27;: &#x27;/Users/asad/Documents/workspace/web2py&#x27;, &#x27;config&#x27;: &#x27;&#x27;, &#x27;minthreads&#x27;: None, &#x27;shell&#x27;: None, &#x27;run&#x27;: &#x27;&#x27;, &#x27;log_filename&#x27;: &#x27;httpserver.log&#x27;, &#x27;profiler_dir&#x27;: None, &#x27;args&#x27;: [&#x27;&#x27;], &#x27;socket_timeout&#x27;: 5, &#x27;ssl_ca_certificate&#x27;: None, &#x27;scheduler&#x27;: None, &#x27;interfaces&#x27;: None, &#x27;ssl_private_key&#x27;: &#x27;&#x27;, &#x27;gae&#x27;: None, &#x27;password&#x27;: &#x27;******&#x27;, &#x27;request_queue_size&#x27;: 5, &#x27;ssl_certificate&#x27;: &#x27;&#x27;, &#x27;cronjob&#x27;: False, &#x27;numthreads&#x27;: None, &#x27;quiet&#x27;: False, &#x27;import_models&#x27;: False, &#x27;timeout&#x27;: 10, &#x27;plain&#x27;: False, &#x27;nobanner&#x27;: False}&gt;</div></td></tr><tr><td style="font-weight:bold;vertical-align:top;">db_sessions</td><td style="vertical-align:top;">:</td><td><div>set([])</div></td></tr><tr><td style="font-weight:bold;vertical-align:top;">debugging</td><td style="vertical-align:top;">:</td><td><div>False</div></td></tr><tr><td style="font-weight:bold;vertical-align:top;">gluon_parent</td><td style="vertical-align:top;">:</td><td><div>/Users/asad/Documents/workspace/web2py</div></td></tr><tr><td style="font-weight:bold;vertical-align:top;">is_jython</td><td style="vertical-align:top;">:</td><td><div>False</div></td></tr><tr><td style="font-weight:bold;vertical-align:top;">is_py2</td><td style="vertical-align:top;">:</td><td><div>True</div></td></tr><tr><td style="font-weight:bold;vertical-align:top;">is_pypy</td><td style="vertical-align:top;">:</td><td><div>False</div></td></tr><tr><td style="font-weight:bold;vertical-align:top;">is_source</td><td style="vertical-align:top;">:</td><td><div>True</div></td></tr><tr><td style="font-weight:bold;vertical-align:top;">local_hosts</td><td style="vertical-align:top;">:</td><td><div><table><tr><td><div>fe80::14c2:5914:1595:17fd%en0</div></td></tr><tr><td><div>::ffff:127.0.0.1</div></td></tr><tr><td><div>::1</div></td></tr><tr><td><div>1.0.0.127.in-addr.arpa</div></td></tr><tr><td><div>127.0.0.1</div></td></tr><tr><td><div>Asads-MacBook-Pro.local</div></td></tr></table></div></td></tr><tr><td style="font-weight:bold;vertical-align:top;">web2py_version</td><td style="vertical-align:top;">:</td><td><div>2.15.2-stable+timestamp.2017.07.19.12.18.41</div></td></tr></table></div></td></tr><tr><td style="font-weight:bold;vertical-align:top;">is_https</td><td style="vertical-align:top;">:</td><td><div>False</div></td></tr><tr><td style="font-weight:bold;vertical-align:top;">is_local</td><td style="vertical-align:top;">:</td><td><div>True</div></td></tr><tr><td style="font-weight:bold;vertical-align:top;">is_restful</td><td style="vertical-align:top;">:</td><td><div>False</div></td></tr><tr><td style="font-weight:bold;vertical-align:top;">is_scheduler</td><td style="vertical-align:top;">:</td><td><div>False</div></td></tr><tr><td style="font-weight:bold;vertical-align:top;">is_shell</td><td style="vertical-align:top;">:</td><td><div>False</div></td></tr><tr><td style="font-weight:bold;vertical-align:top;">now</td><td style="vertical-align:top;">:</td><td><div>datetime.datetime(2018, 7, 18, 20, 43, 54, 600970)</div></td></tr><tr><td style="font-weight:bold;vertical-align:top;">raw_args</td><td style="vertical-align:top;">:</td><td><div></div></td></tr><tr><td style="font-weight:bold;vertical-align:top;">raw_extension</td><td style="vertical-align:top;">:</td><td><div>None</div></td></tr><tr><td style="font-weight:bold;vertical-align:top;">url</td><td style="vertical-align:top;">:</td><td><div>/Fitters/default/index</div></td></tr><tr><td style="font-weight:bold;vertical-align:top;">utcnow</td><td style="vertical-align:top;">:</td><td><div>datetime.datetime(2018, 7, 18, 15, 43, 54, 600979)</div></td></tr><tr><td style="font-weight:bold;vertical-align:top;">wsgi</td><td style="vertical-align:top;">:</td><td><div>&lt;gluon.main.LazyWSGI object at 0x110b6f9d0&gt;</div></td></tr></table></div>'
tRp72
sS'frames'
p73
(lp74
(dp75
S'file'
p76
S'/Users/asad/Documents/workspace/web2py/gluon/restricted.py'
p77
sS'dump'
p78
(dp79
S'environment'
p80
S"{'A': <class 'gluon.html.A'>, 'ANY_OF': <class 'gluon.validators.ANY_OF'>, 'ASSIGNJS': <function ASSIGNJS>, 'AppConfig': <function AppConfig>, 'Auth': <class 'gluon.tools.Auth'>, 'B': <class 'gluon.html.B'>, 'BEAUTIFY': <class 'gluon.html.BEAUTIFY'>, 'BODY': <class 'gluon.html.BODY'>, 'BR': <class 'gluon.html.BR'>, 'BUTTON': <class 'gluon.html.BUTTON'>, ...}"
p81
sS'ccode'
p82
S'"response.write(\'<!-- \', escape=False)\\nleft_sideb...script> -->\\\\n  </body>\\\\n</html>\\\\n\', escape=False)"'
p83
ssS'lnum'
p84
I219
sS'lines'
p85
(dp86
I214
S'    if environment is None:'
p87
sI215
S'        environment = {}'
p88
sI216
S"    environment['__file__'] = layer"
p89
sI217
S"    environment['__name__'] = '__restricted__'"
p90
sI218
S'    try:'
p91
sI219
S'        exec(ccode, environment)'
p92
sI220
S'    except HTTP:'
p93
sI221
S'        raise'
p94
sI222
S'    except RestrictedError:'
p95
sI223
S'        # do not encapsulate (obfuscate) the original RestrictedError'
p96
ssS'call'
p97
S'(ccode="response.write(\'<!-- \', escape=False)\\nleft_sideb...script> -->\\\\n  </body>\\\\n</html>\\\\n\', escape=False)", environment={\'A\': <class \'gluon.html.A\'>, \'ANY_OF\': <class \'gluon.validators.ANY_OF\'>, \'ASSIGNJS\': <function ASSIGNJS>, \'AppConfig\': <function AppConfig>, \'Auth\': <class \'gluon.tools.Auth\'>, \'B\': <class \'gluon.html.B\'>, \'BEAUTIFY\': <class \'gluon.html.BEAUTIFY\'>, \'BODY\': <class \'gluon.html.BODY\'>, \'BR\': <class \'gluon.html.BR\'>, \'BUTTON\': <class \'gluon.html.BUTTON\'>, ...}, layer=\'/Users/asad/Documents/workspace/web2py/applications/Fitters/views/default/index.html\')'
p98
sS'func'
p99
S'restricted'
p100
sasS'pyver'
p101
S'Python 2.7.10: /usr/bin/python (prefix: /System/Library/Frameworks/Python.framework/Versions/2.7)'
p102
sS'session'
p103
g71
(S's\x97\x00\x00\x00<div><table><tr><td style="font-weight:bold;vertical-align:top;">a</td><td style="vertical-align:top;">:</td><td><div>522</div></td></tr></table></div>'
tRp104
sS'etype'
p105
S"<type 'exceptions.SyntaxError'>"
p106
sS'date'
p107
S'Wed Jul 18 20:43:54 2018'
p108
sS'response'
p109
g71
(S's.%\x00\x00<div><table><tr><td style="font-weight:bold;vertical-align:top;">body</td><td style="vertical-align:top;">:</td><td><div>&lt;cStringIO.StringO object at 0x1100c3ae8&gt;</div></td></tr><tr><td style="font-weight:bold;vertical-align:top;">cookies</td><td style="vertical-align:top;">:</td><td><div><table><tr><td style="font-weight:bold;vertical-align:top;">session_id_fitters</td><td style="vertical-align:top;">:</td><td><div>127.0.0.1-7f8e4e6c-d7b1-4a69-b697-c127605936a5<table><tr><td style="font-weight:bold;vertical-align:top;">comment</td><td style="vertical-align:top;">:</td><td><div></div></td></tr><tr><td style="font-weight:bold;vertical-align:top;">domain</td><td style="vertical-align:top;">:</td><td><div></div></td></tr><tr><td style="font-weight:bold;vertical-align:top;">expires</td><td style="vertical-align:top;">:</td><td><div></div></td></tr><tr><td style="font-weight:bold;vertical-align:top;">httponly</td><td style="vertical-align:top;">:</td><td><div></div></td></tr><tr><td style="font-weight:bold;vertical-align:top;">max-age</td><td style="vertical-align:top;">:</td><td><div></div></td></tr><tr><td style="font-weight:bold;vertical-align:top;">path</td><td style="vertical-align:top;">:</td><td><div>/</div></td></tr><tr><td style="font-weight:bold;vertical-align:top;">secure</td><td style="vertical-align:top;">:</td><td><div></div></td></tr><tr><td style="font-weight:bold;vertical-align:top;">version</td><td style="vertical-align:top;">:</td><td><div></div></td></tr></table></div></td></tr></table></div></td></tr><tr><td style="font-weight:bold;vertical-align:top;">delimiters</td><td style="vertical-align:top;">:</td><td><div><table><tr><td><div>{{</div></td></tr><tr><td><div>}}</div></td></tr></table></div></td></tr><tr><td style="font-weight:bold;vertical-align:top;">files</td><td style="vertical-align:top;">:</td><td><div><table></table></div></td></tr><tr><td style="font-weight:bold;vertical-align:top;">flash</td><td style="vertical-align:top;">:</td><td><div></div></td></tr><tr><td style="font-weight:bold;vertical-align:top;">form_label_separator</td><td style="vertical-align:top;">:</td><td><div></div></td></tr><tr><td style="font-weight:bold;vertical-align:top;">formstyle</td><td style="vertical-align:top;">:</td><td><div>bootstrap3_inline</div></td></tr><tr><td style="font-weight:bold;vertical-align:top;">generic_patterns</td><td style="vertical-align:top;">:</td><td><div><table><tr><td><div>*</div></td></tr></table></div></td></tr><tr><td style="font-weight:bold;vertical-align:top;">google_analytics_id</td><td style="vertical-align:top;">:</td><td><div>None</div></td></tr><tr><td style="font-weight:bold;vertical-align:top;">headers</td><td style="vertical-align:top;">:</td><td><div><table><tr><td style="font-weight:bold;vertical-align:top;">X-Powered-By</td><td style="vertical-align:top;">:</td><td><div>web2py</div></td></tr></table></div></td></tr><tr><td style="font-weight:bold;vertical-align:top;">logo</td><td style="vertical-align:top;">:</td><td><div><a class="navbar-brand" href="/Fitters/default/index"><img alt="Fitters Logo" src="/Fitters/static/images/new_logo2.png" style="width:90%;" /></a></div></td></tr><tr><td style="font-weight:bold;vertical-align:top;">menu</td><td style="vertical-align:top;">:</td><td><div><table><tr><td><div><table><tr><td><div>Men</div></td></tr><tr><td><div>False</div></td></tr><tr><td><div>/Fitters/default/men</div></td></tr><tr><td><div><table></table></div></td></tr></table></div></td></tr><tr><td><div><table><tr><td><div>Women</div></td></tr><tr><td><div>False</div></td></tr><tr><td><div>/Fitters/default/women</div></td></tr><tr><td><div><table></table></div></td></tr></table></div></td></tr><tr><td><div><table><tr><td><div>Mini</div></td></tr><tr><td><div>False</div></td></tr><tr><td><div>/Fitters/default/mini</div></td></tr><tr><td><div><table></table></div></td></tr></table></div></td></tr><tr><td><div><table><tr><td><div>Unstitched</div></td></tr><tr><td><div>False</div></td></tr><tr><td><div>/Fitters/default/unstitched</div></td></tr><tr><td><div><table></table></div></td></tr></table></div></td></tr><tr><td><div><table><tr><td><div>Accessories</div></td></tr><tr><td><div>False</div></td></tr><tr><td><div>/Fitters/default/accessories</div></td></tr><tr><td><div><table></table></div></td></tr></table></div></td></tr><tr><td><div><table><tr><td><div>Business</div></td></tr><tr><td><div>False</div></td></tr><tr><td><div>/Fitters/default/business</div></td></tr><tr><td><div><table></table></div></td></tr></table></div></td></tr><tr><td><div><table><tr><td><div>Overseas</div></td></tr><tr><td><div>False</div></td></tr><tr><td><div>/Fitters/default/overseas</div></td></tr><tr><td><div><table></table></div></td></tr></table></div></td></tr><tr><td><div><table><tr><td><div>Prices</div></td></tr><tr><td><div>False</div></td></tr><tr><td><div>/Fitters/default/prices</div></td></tr><tr><td><div><table></table></div></td></tr></table></div></td></tr><tr><td><div><table><tr><td><div>Offers</div></td></tr><tr><td><div>False</div></td></tr><tr><td><div>/Fitters/default/offers</div></td></tr><tr><td><div><table></table></div></td></tr></table></div></td></tr><tr><td><div><table><tr><td><div>Quick Order</div></td></tr><tr><td><div>False</div></td></tr><tr><td><div>/Fitters/default/quickorder</div></td></tr><tr><td><div><table></table></div></td></tr></table></div></td></tr></table></div></td></tr><tr><td style="font-weight:bold;vertical-align:top;">meta</td><td style="vertical-align:top;">:</td><td><div><table><tr><td style="font-weight:bold;vertical-align:top;">author</td><td style="vertical-align:top;">:</td><td><div>Your Name &lt;you@example.com&gt;</div></td></tr><tr><td style="font-weight:bold;vertical-align:top;">description</td><td style="vertical-align:top;">:</td><td><div>a cool new app</div></td></tr><tr><td style="font-weight:bold;vertical-align:top;">generator</td><td style="vertical-align:top;">:</td><td><div>Web2py Web Framework</div></td></tr><tr><td style="font-weight:bold;vertical-align:top;">keywords</td><td style="vertical-align:top;">:</td><td><div><table><tr><td><div>web2py</div></td></tr><tr><td><div>python</div></td></tr><tr><td><div>framework</div></td></tr></table></div></td></tr></table></div></td></tr><tr><td style="font-weight:bold;vertical-align:top;">models_to_run</td><td style="vertical-align:top;">:</td><td><div><table><tr><td><div>^\\w+\\.py$</div></td></tr><tr><td><div>^default/\\w+\\.py$</div></td></tr><tr><td><div>^default/index/\\w+\\.py$</div></td></tr></table></div></td></tr><tr><td style="font-weight:bold;vertical-align:top;">postprocessing</td><td style="vertical-align:top;">:</td><td><div><table></table></div></td></tr><tr><td style="font-weight:bold;vertical-align:top;">session_client</td><td style="vertical-align:top;">:</td><td><div>127.0.0.1</div></td></tr><tr><td style="font-weight:bold;vertical-align:top;">session_cookie_compression_level</td><td style="vertical-align:top;">:</td><td><div>None</div></td></tr><tr><td style="font-weight:bold;vertical-align:top;">session_cookie_expires</td><td style="vertical-align:top;">:</td><td><div>None</div></td></tr><tr><td style="font-weight:bold;vertical-align:top;">session_data_name</td><td style="vertical-align:top;">:</td><td><div>session_data_fitters</div></td></tr><tr><td style="font-weight:bold;vertical-align:top;">session_file</td><td style="vertical-align:top;">:</td><td><div>&lt;open file &#x27;/Users/asad/Documents/workspace/web2py/applications/Fitters/sessions/1a7/097/127.0.0.1-7f8e4e6c-d7b1-4a69-b697-c127605936a5&#x27;, mode &#x27;rb+&#x27; at 0x110d77b70&gt;</div></td></tr><tr><td style="font-weight:bold;vertical-align:top;">session_filename</td><td style="vertical-align:top;">:</td><td><div>/Users/asad/Documents/workspace/web2py/applications/Fitters/sessions/127.0.0.1-7f8e4e6c-d7b1-4a69-b697-c127605936a5</div></td></tr><tr><td style="font-weight:bold;vertical-align:top;">session_hash</td><td style="vertical-align:top;">:</td><td><div>c361c03d8ae5dc55afdb8278b53ecf11</div></td></tr><tr><td style="font-weight:bold;vertical-align:top;">session_id</td><td style="vertical-align:top;">:</td><td><div>127.0.0.1-7f8e4e6c-d7b1-4a69-b697-c127605936a5</div></td></tr><tr><td style="font-weight:bold;vertical-align:top;">session_id_name</td><td style="vertical-align:top;">:</td><td><div>session_id_fitters</div></td></tr><tr><td style="font-weight:bold;vertical-align:top;">session_locked</td><td style="vertical-align:top;">:</td><td><div>True</div></td></tr><tr><td style="font-weight:bold;vertical-align:top;">session_masterapp</td><td style="vertical-align:top;">:</td><td><div>Fitters</div></td></tr><tr><td style="font-weight:bold;vertical-align:top;">session_new</td><td style="vertical-align:top;">:</td><td><div>False</div></td></tr><tr><td style="font-weight:bold;vertical-align:top;">session_storage_type</td><td style="vertical-align:top;">:</td><td><div>file</div></td></tr><tr><td style="font-weight:bold;vertical-align:top;">status</td><td style="vertical-align:top;">:</td><td><div>200</div></td></tr><tr><td style="font-weight:bold;vertical-align:top;">subtitle</td><td style="vertical-align:top;">:</td><td><div></div></td></tr><tr><td style="font-weight:bold;vertical-align:top;">title</td><td style="vertical-align:top;">:</td><td><div>Fitters</div></td></tr><tr><td style="font-weight:bold;vertical-align:top;">view</td><td style="vertical-align:top;">:</td><td><div>default/index.html</div></td></tr></table></div>'
tRp110
sS'locals'
p111
(dp112
g4
S"'/Users/asad/Documents/workspace/web2py/applications/Fitters/views/default/index.html'"
p113
sS'ccode'
p114
S'"response.write(\'<!-- \', escape=False)\\nleft_sideb...script> -->\\\\n  </body>\\\\n</html>\\\\n\', escape=False)"'
p115
sg68
S'SyntaxError(\'invalid syntax\', (\'<string>\', 65, 18, "if page == \'home\'\\n"))'
p116
sS'environment'
p117
S"{'A': <class 'gluon.html.A'>, 'ANY_OF': <class 'gluon.validators.ANY_OF'>, 'ASSIGNJS': <function ASSIGNJS>, 'AppConfig': <function AppConfig>, 'Auth': <class 'gluon.tools.Auth'>, 'B': <class 'gluon.html.B'>, 'BEAUTIFY': <class 'gluon.html.BEAUTIFY'>, 'BODY': <class 'gluon.html.BODY'>, 'BR': <class 'gluon.html.BR'>, 'BUTTON': <class 'gluon.html.BUTTON'>, ...}"
p118
sS'error'
p119
S'SyntaxError(\'invalid syntax\', (\'<string>\', 65, 18, "if page == \'home\'\\n"))'
p120
sg105
S"<type 'exceptions.SyntaxError'>"
p121
sg2
S'"<type \'exceptions.SyntaxError\'> invalid syntax (<string>, line 65)"'
p122
sssS'traceback'
p123
S'Traceback (most recent call last):\n  File "/Users/asad/Documents/workspace/web2py/gluon/restricted.py", line 219, in restricted\n    exec(ccode, environment)\n  File "<string>", line 65\n    if page == \'home\'\n                    ^\nSyntaxError: invalid syntax\n'
p124
s.